
server1:     file format elf32-i386


Disassembly of section .init:

08048730 <_init>:
 8048730:	55                   	push   %ebp
 8048731:	89 e5                	mov    %esp,%ebp
 8048733:	53                   	push   %ebx
 8048734:	83 ec 04             	sub    $0x4,%esp
 8048737:	e8 00 00 00 00       	call   804873c <_init+0xc>
 804873c:	5b                   	pop    %ebx
 804873d:	81 c3 60 26 00 00    	add    $0x2660,%ebx
 8048743:	8b 93 fc ff ff ff    	mov    -0x4(%ebx),%edx
 8048749:	85 d2                	test   %edx,%edx
 804874b:	74 05                	je     8048752 <_init+0x22>
 804874d:	e8 5e 00 00 00       	call   80487b0 <__gmon_start__@plt>
 8048752:	e8 29 03 00 00       	call   8048a80 <frame_dummy>
 8048757:	e8 94 11 00 00       	call   80498f0 <__do_global_ctors_aux>
 804875c:	58                   	pop    %eax
 804875d:	5b                   	pop    %ebx
 804875e:	c9                   	leave  
 804875f:	c3                   	ret    

Disassembly of section .plt:

08048760 <__errno_location@plt-0x10>:
 8048760:	ff 35 a0 ad 04 08    	pushl  0x804ada0
 8048766:	ff 25 a4 ad 04 08    	jmp    *0x804ada4
 804876c:	00 00                	add    %al,(%eax)
	...

08048770 <__errno_location@plt>:
 8048770:	ff 25 a8 ad 04 08    	jmp    *0x804ada8
 8048776:	68 00 00 00 00       	push   $0x0
 804877b:	e9 e0 ff ff ff       	jmp    8048760 <_init+0x30>

08048780 <sprintf@plt>:
 8048780:	ff 25 ac ad 04 08    	jmp    *0x804adac
 8048786:	68 08 00 00 00       	push   $0x8
 804878b:	e9 d0 ff ff ff       	jmp    8048760 <_init+0x30>

08048790 <mmap@plt>:
 8048790:	ff 25 b0 ad 04 08    	jmp    *0x804adb0
 8048796:	68 10 00 00 00       	push   $0x10
 804879b:	e9 c0 ff ff ff       	jmp    8048760 <_init+0x30>

080487a0 <random@plt>:
 80487a0:	ff 25 b4 ad 04 08    	jmp    *0x804adb4
 80487a6:	68 18 00 00 00       	push   $0x18
 80487ab:	e9 b0 ff ff ff       	jmp    8048760 <_init+0x30>

080487b0 <__gmon_start__@plt>:
 80487b0:	ff 25 b8 ad 04 08    	jmp    *0x804adb8
 80487b6:	68 20 00 00 00       	push   $0x20
 80487bb:	e9 a0 ff ff ff       	jmp    8048760 <_init+0x30>

080487c0 <calloc@plt>:
 80487c0:	ff 25 bc ad 04 08    	jmp    *0x804adbc
 80487c6:	68 28 00 00 00       	push   $0x28
 80487cb:	e9 90 ff ff ff       	jmp    8048760 <_init+0x30>

080487d0 <write@plt>:
 80487d0:	ff 25 c0 ad 04 08    	jmp    *0x804adc0
 80487d6:	68 30 00 00 00       	push   $0x30
 80487db:	e9 80 ff ff ff       	jmp    8048760 <_init+0x30>

080487e0 <listen@plt>:
 80487e0:	ff 25 c4 ad 04 08    	jmp    *0x804adc4
 80487e6:	68 38 00 00 00       	push   $0x38
 80487eb:	e9 70 ff ff ff       	jmp    8048760 <_init+0x30>

080487f0 <__libc_start_main@plt>:
 80487f0:	ff 25 c8 ad 04 08    	jmp    *0x804adc8
 80487f6:	68 40 00 00 00       	push   $0x40
 80487fb:	e9 60 ff ff ff       	jmp    8048760 <_init+0x30>

08048800 <htons@plt>:
 8048800:	ff 25 cc ad 04 08    	jmp    *0x804adcc
 8048806:	68 48 00 00 00       	push   $0x48
 804880b:	e9 50 ff ff ff       	jmp    8048760 <_init+0x30>

08048810 <read@plt>:
 8048810:	ff 25 d0 ad 04 08    	jmp    *0x804add0
 8048816:	68 50 00 00 00       	push   $0x50
 804881b:	e9 40 ff ff ff       	jmp    8048760 <_init+0x30>

08048820 <gettimeofday@plt>:
 8048820:	ff 25 d4 ad 04 08    	jmp    *0x804add4
 8048826:	68 58 00 00 00       	push   $0x58
 804882b:	e9 30 ff ff ff       	jmp    8048760 <_init+0x30>

08048830 <accept@plt>:
 8048830:	ff 25 d8 ad 04 08    	jmp    *0x804add8
 8048836:	68 60 00 00 00       	push   $0x60
 804883b:	e9 20 ff ff ff       	jmp    8048760 <_init+0x30>

08048840 <socket@plt>:
 8048840:	ff 25 dc ad 04 08    	jmp    *0x804addc
 8048846:	68 68 00 00 00       	push   $0x68
 804884b:	e9 10 ff ff ff       	jmp    8048760 <_init+0x30>

08048850 <fclose@plt>:
 8048850:	ff 25 e0 ad 04 08    	jmp    *0x804ade0
 8048856:	68 70 00 00 00       	push   $0x70
 804885b:	e9 00 ff ff ff       	jmp    8048760 <_init+0x30>

08048860 <strlen@plt>:
 8048860:	ff 25 e4 ad 04 08    	jmp    *0x804ade4
 8048866:	68 78 00 00 00       	push   $0x78
 804886b:	e9 f0 fe ff ff       	jmp    8048760 <_init+0x30>

08048870 <fopen@plt>:
 8048870:	ff 25 e8 ad 04 08    	jmp    *0x804ade8
 8048876:	68 80 00 00 00       	push   $0x80
 804887b:	e9 e0 fe ff ff       	jmp    8048760 <_init+0x30>

08048880 <strcpy@plt>:
 8048880:	ff 25 ec ad 04 08    	jmp    *0x804adec
 8048886:	68 88 00 00 00       	push   $0x88
 804888b:	e9 d0 fe ff ff       	jmp    8048760 <_init+0x30>

08048890 <printf@plt>:
 8048890:	ff 25 f0 ad 04 08    	jmp    *0x804adf0
 8048896:	68 90 00 00 00       	push   $0x90
 804889b:	e9 c0 fe ff ff       	jmp    8048760 <_init+0x30>

080488a0 <bind@plt>:
 80488a0:	ff 25 f4 ad 04 08    	jmp    *0x804adf4
 80488a6:	68 98 00 00 00       	push   $0x98
 80488ab:	e9 b0 fe ff ff       	jmp    8048760 <_init+0x30>

080488b0 <atof@plt>:
 80488b0:	ff 25 f8 ad 04 08    	jmp    *0x804adf8
 80488b6:	68 a0 00 00 00       	push   $0xa0
 80488bb:	e9 a0 fe ff ff       	jmp    8048760 <_init+0x30>

080488c0 <select@plt>:
 80488c0:	ff 25 fc ad 04 08    	jmp    *0x804adfc
 80488c6:	68 a8 00 00 00       	push   $0xa8
 80488cb:	e9 90 fe ff ff       	jmp    8048760 <_init+0x30>

080488d0 <srandom@plt>:
 80488d0:	ff 25 00 ae 04 08    	jmp    *0x804ae00
 80488d6:	68 b0 00 00 00       	push   $0xb0
 80488db:	e9 80 fe ff ff       	jmp    8048760 <_init+0x30>

080488e0 <close@plt>:
 80488e0:	ff 25 04 ae 04 08    	jmp    *0x804ae04
 80488e6:	68 b8 00 00 00       	push   $0xb8
 80488eb:	e9 70 fe ff ff       	jmp    8048760 <_init+0x30>

080488f0 <fwrite@plt>:
 80488f0:	ff 25 08 ae 04 08    	jmp    *0x804ae08
 80488f6:	68 c0 00 00 00       	push   $0xc0
 80488fb:	e9 60 fe ff ff       	jmp    8048760 <_init+0x30>

08048900 <strstr@plt>:
 8048900:	ff 25 0c ae 04 08    	jmp    *0x804ae0c
 8048906:	68 c8 00 00 00       	push   $0xc8
 804890b:	e9 50 fe ff ff       	jmp    8048760 <_init+0x30>

08048910 <puts@plt>:
 8048910:	ff 25 10 ae 04 08    	jmp    *0x804ae10
 8048916:	68 d0 00 00 00       	push   $0xd0
 804891b:	e9 40 fe ff ff       	jmp    8048760 <_init+0x30>

08048920 <setsockopt@plt>:
 8048920:	ff 25 14 ae 04 08    	jmp    *0x804ae14
 8048926:	68 d8 00 00 00       	push   $0xd8
 804892b:	e9 30 fe ff ff       	jmp    8048760 <_init+0x30>

08048930 <bzero@plt>:
 8048930:	ff 25 18 ae 04 08    	jmp    *0x804ae18
 8048936:	68 e0 00 00 00       	push   $0xe0
 804893b:	e9 20 fe ff ff       	jmp    8048760 <_init+0x30>

08048940 <htonl@plt>:
 8048940:	ff 25 1c ae 04 08    	jmp    *0x804ae1c
 8048946:	68 e8 00 00 00       	push   $0xe8
 804894b:	e9 10 fe ff ff       	jmp    8048760 <_init+0x30>

08048950 <strncmp@plt>:
 8048950:	ff 25 20 ae 04 08    	jmp    *0x804ae20
 8048956:	68 f0 00 00 00       	push   $0xf0
 804895b:	e9 00 fe ff ff       	jmp    8048760 <_init+0x30>

08048960 <munmap@plt>:
 8048960:	ff 25 24 ae 04 08    	jmp    *0x804ae24
 8048966:	68 f8 00 00 00       	push   $0xf8
 804896b:	e9 f0 fd ff ff       	jmp    8048760 <_init+0x30>

08048970 <exit@plt>:
 8048970:	ff 25 28 ae 04 08    	jmp    *0x804ae28
 8048976:	68 00 01 00 00       	push   $0x100
 804897b:	e9 e0 fd ff ff       	jmp    8048760 <_init+0x30>

Disassembly of section .text:

08048980 <_start>:
 8048980:	31 ed                	xor    %ebp,%ebp
 8048982:	5e                   	pop    %esi
 8048983:	89 e1                	mov    %esp,%ecx
 8048985:	83 e4 f0             	and    $0xfffffff0,%esp
 8048988:	50                   	push   %eax
 8048989:	54                   	push   %esp
 804898a:	52                   	push   %edx
 804898b:	68 80 98 04 08       	push   $0x8049880
 8048990:	68 90 98 04 08       	push   $0x8049890
 8048995:	51                   	push   %ecx
 8048996:	56                   	push   %esi
 8048997:	68 5e 97 04 08       	push   $0x804975e
 804899c:	e8 4f fe ff ff       	call   80487f0 <__libc_start_main@plt>
 80489a1:	f4                   	hlt    
 80489a2:	90                   	nop
 80489a3:	90                   	nop
 80489a4:	90                   	nop
 80489a5:	90                   	nop
 80489a6:	90                   	nop
 80489a7:	90                   	nop
 80489a8:	90                   	nop
 80489a9:	90                   	nop
 80489aa:	90                   	nop
 80489ab:	90                   	nop
 80489ac:	90                   	nop
 80489ad:	90                   	nop
 80489ae:	90                   	nop
 80489af:	90                   	nop

080489b0 <deregister_tm_clones>:
 80489b0:	b8 3f ae 04 08       	mov    $0x804ae3f,%eax
 80489b5:	2d 3c ae 04 08       	sub    $0x804ae3c,%eax
 80489ba:	83 f8 06             	cmp    $0x6,%eax
 80489bd:	77 01                	ja     80489c0 <deregister_tm_clones+0x10>
 80489bf:	c3                   	ret    
 80489c0:	b8 00 00 00 00       	mov    $0x0,%eax
 80489c5:	85 c0                	test   %eax,%eax
 80489c7:	74 f6                	je     80489bf <deregister_tm_clones+0xf>
 80489c9:	55                   	push   %ebp
 80489ca:	89 e5                	mov    %esp,%ebp
 80489cc:	83 ec 18             	sub    $0x18,%esp
 80489cf:	c7 04 24 3c ae 04 08 	movl   $0x804ae3c,(%esp)
 80489d6:	ff d0                	call   *%eax
 80489d8:	c9                   	leave  
 80489d9:	c3                   	ret    
 80489da:	8d b6 00 00 00 00    	lea    0x0(%esi),%esi

080489e0 <register_tm_clones>:
 80489e0:	b8 3c ae 04 08       	mov    $0x804ae3c,%eax
 80489e5:	2d 3c ae 04 08       	sub    $0x804ae3c,%eax
 80489ea:	c1 f8 02             	sar    $0x2,%eax
 80489ed:	89 c2                	mov    %eax,%edx
 80489ef:	c1 ea 1f             	shr    $0x1f,%edx
 80489f2:	01 d0                	add    %edx,%eax
 80489f4:	d1 f8                	sar    %eax
 80489f6:	75 01                	jne    80489f9 <register_tm_clones+0x19>
 80489f8:	c3                   	ret    
 80489f9:	ba 00 00 00 00       	mov    $0x0,%edx
 80489fe:	85 d2                	test   %edx,%edx
 8048a00:	74 f6                	je     80489f8 <register_tm_clones+0x18>
 8048a02:	55                   	push   %ebp
 8048a03:	89 e5                	mov    %esp,%ebp
 8048a05:	83 ec 18             	sub    $0x18,%esp
 8048a08:	89 44 24 04          	mov    %eax,0x4(%esp)
 8048a0c:	c7 04 24 3c ae 04 08 	movl   $0x804ae3c,(%esp)
 8048a13:	ff d2                	call   *%edx
 8048a15:	c9                   	leave  
 8048a16:	c3                   	ret    
 8048a17:	89 f6                	mov    %esi,%esi
 8048a19:	8d bc 27 00 00 00 00 	lea    0x0(%edi,%eiz,1),%edi

08048a20 <__do_global_dtors_aux>:
 8048a20:	80 3d 44 ae 04 08 00 	cmpb   $0x0,0x804ae44
 8048a27:	75 50                	jne    8048a79 <__do_global_dtors_aux+0x59>
 8048a29:	55                   	push   %ebp
 8048a2a:	89 e5                	mov    %esp,%ebp
 8048a2c:	53                   	push   %ebx
 8048a2d:	bb c8 ac 04 08       	mov    $0x804acc8,%ebx
 8048a32:	83 ec 04             	sub    $0x4,%esp
 8048a35:	a1 48 ae 04 08       	mov    0x804ae48,%eax
 8048a3a:	81 eb c4 ac 04 08    	sub    $0x804acc4,%ebx
 8048a40:	c1 fb 02             	sar    $0x2,%ebx
 8048a43:	83 eb 01             	sub    $0x1,%ebx
 8048a46:	39 d8                	cmp    %ebx,%eax
 8048a48:	73 1e                	jae    8048a68 <__do_global_dtors_aux+0x48>
 8048a4a:	8d b6 00 00 00 00    	lea    0x0(%esi),%esi
 8048a50:	83 c0 01             	add    $0x1,%eax
 8048a53:	a3 48 ae 04 08       	mov    %eax,0x804ae48
 8048a58:	ff 14 85 c4 ac 04 08 	call   *0x804acc4(,%eax,4)
 8048a5f:	a1 48 ae 04 08       	mov    0x804ae48,%eax
 8048a64:	39 d8                	cmp    %ebx,%eax
 8048a66:	72 e8                	jb     8048a50 <__do_global_dtors_aux+0x30>
 8048a68:	e8 43 ff ff ff       	call   80489b0 <deregister_tm_clones>
 8048a6d:	c6 05 44 ae 04 08 01 	movb   $0x1,0x804ae44
 8048a74:	83 c4 04             	add    $0x4,%esp
 8048a77:	5b                   	pop    %ebx
 8048a78:	5d                   	pop    %ebp
 8048a79:	c3                   	ret    
 8048a7a:	8d b6 00 00 00 00    	lea    0x0(%esi),%esi

08048a80 <frame_dummy>:
 8048a80:	a1 cc ac 04 08       	mov    0x804accc,%eax
 8048a85:	85 c0                	test   %eax,%eax
 8048a87:	74 1f                	je     8048aa8 <frame_dummy+0x28>
 8048a89:	b8 00 00 00 00       	mov    $0x0,%eax
 8048a8e:	85 c0                	test   %eax,%eax
 8048a90:	74 16                	je     8048aa8 <frame_dummy+0x28>
 8048a92:	55                   	push   %ebp
 8048a93:	89 e5                	mov    %esp,%ebp
 8048a95:	83 ec 18             	sub    $0x18,%esp
 8048a98:	c7 04 24 cc ac 04 08 	movl   $0x804accc,(%esp)
 8048a9f:	ff d0                	call   *%eax
 8048aa1:	c9                   	leave  
 8048aa2:	e9 39 ff ff ff       	jmp    80489e0 <register_tm_clones>
 8048aa7:	90                   	nop
 8048aa8:	e9 33 ff ff ff       	jmp    80489e0 <register_tm_clones>
 8048aad:	90                   	nop
 8048aae:	90                   	nop
 8048aaf:	90                   	nop

08048ab0 <close_connec>:
 8048ab0:	55                   	push   %ebp
 8048ab1:	89 e5                	mov    %esp,%ebp
 8048ab3:	56                   	push   %esi
 8048ab4:	53                   	push   %ebx
 8048ab5:	83 ec 10             	sub    $0x10,%esp
 8048ab8:	8b 45 08             	mov    0x8(%ebp),%eax
 8048abb:	8b 00                	mov    (%eax),%eax
 8048abd:	8d 50 1f             	lea    0x1f(%eax),%edx
 8048ac0:	85 c0                	test   %eax,%eax
 8048ac2:	0f 48 c2             	cmovs  %edx,%eax
 8048ac5:	c1 f8 05             	sar    $0x5,%eax
 8048ac8:	8b 1c 85 20 2d 05 08 	mov    0x8052d20(,%eax,4),%ebx
 8048acf:	8b 55 08             	mov    0x8(%ebp),%edx
 8048ad2:	8b 12                	mov    (%edx),%edx
 8048ad4:	89 d1                	mov    %edx,%ecx
 8048ad6:	c1 f9 1f             	sar    $0x1f,%ecx
 8048ad9:	c1 e9 1b             	shr    $0x1b,%ecx
 8048adc:	01 ca                	add    %ecx,%edx
 8048ade:	83 e2 1f             	and    $0x1f,%edx
 8048ae1:	29 ca                	sub    %ecx,%edx
 8048ae3:	be 01 00 00 00       	mov    $0x1,%esi
 8048ae8:	89 d1                	mov    %edx,%ecx
 8048aea:	d3 e6                	shl    %cl,%esi
 8048aec:	89 f2                	mov    %esi,%edx
 8048aee:	f7 d2                	not    %edx
 8048af0:	21 da                	and    %ebx,%edx
 8048af2:	89 14 85 20 2d 05 08 	mov    %edx,0x8052d20(,%eax,4)
 8048af9:	8b 45 08             	mov    0x8(%ebp),%eax
 8048afc:	8b 00                	mov    (%eax),%eax
 8048afe:	89 04 24             	mov    %eax,(%esp)
 8048b01:	e8 da fd ff ff       	call   80488e0 <close@plt>
 8048b06:	8b 45 08             	mov    0x8(%ebp),%eax
 8048b09:	c7 00 ff ff ff ff    	movl   $0xffffffff,(%eax)
 8048b0f:	83 c4 10             	add    $0x10,%esp
 8048b12:	5b                   	pop    %ebx
 8048b13:	5e                   	pop    %esi
 8048b14:	5d                   	pop    %ebp
 8048b15:	c3                   	ret    

08048b16 <check_error>:
 8048b16:	55                   	push   %ebp
 8048b17:	89 e5                	mov    %esp,%ebp
 8048b19:	83 ec 18             	sub    $0x18,%esp
 8048b1c:	83 7d 0c ff          	cmpl   $0xffffffff,0xc(%ebp)
 8048b20:	75 25                	jne    8048b47 <check_error+0x31>
 8048b22:	e8 49 fc ff ff       	call   8048770 <__errno_location@plt>
 8048b27:	8b 00                	mov    (%eax),%eax
 8048b29:	89 44 24 08          	mov    %eax,0x8(%esp)
 8048b2d:	c7 44 24 04 40 99 04 	movl   $0x8049940,0x4(%esp)
 8048b34:	08 
 8048b35:	8b 45 08             	mov    0x8(%ebp),%eax
 8048b38:	89 04 24             	mov    %eax,(%esp)
 8048b3b:	e8 40 fc ff ff       	call   8048780 <sprintf@plt>
 8048b40:	b8 01 00 00 00       	mov    $0x1,%eax
 8048b45:	eb 47                	jmp    8048b8e <check_error+0x78>
 8048b47:	8b 45 0c             	mov    0xc(%ebp),%eax
 8048b4a:	3b 45 10             	cmp    0x10(%ebp),%eax
 8048b4d:	7d 3a                	jge    8048b89 <check_error+0x73>
 8048b4f:	8b 45 08             	mov    0x8(%ebp),%eax
 8048b52:	c7 00 52 65 73 70    	movl   $0x70736552,(%eax)
 8048b58:	c7 40 04 6f 6e 73 65 	movl   $0x65736e6f,0x4(%eax)
 8048b5f:	c7 40 08 20 70 61 72 	movl   $0x72617020,0x8(%eax)
 8048b66:	c7 40 0c 74 69 61 6c 	movl   $0x6c616974,0xc(%eax)
 8048b6d:	c7 40 10 6c 79 20 73 	movl   $0x7320796c,0x10(%eax)
 8048b74:	c7 40 14 65 6e 74 20 	movl   $0x20746e65,0x14(%eax)
 8048b7b:	c7 40 18 21 21 0a 00 	movl   $0xa2121,0x18(%eax)
 8048b82:	b8 01 00 00 00       	mov    $0x1,%eax
 8048b87:	eb 05                	jmp    8048b8e <check_error+0x78>
 8048b89:	b8 00 00 00 00       	mov    $0x0,%eax
 8048b8e:	c9                   	leave  
 8048b8f:	c3                   	ret    

08048b90 <store_gt>:
 8048b90:	55                   	push   %ebp
 8048b91:	89 e5                	mov    %esp,%ebp
 8048b93:	83 ec 28             	sub    $0x28,%esp
 8048b96:	c7 44 24 04 84 99 04 	movl   $0x8049984,0x4(%esp)
 8048b9d:	08 
 8048b9e:	c7 04 24 86 99 04 08 	movl   $0x8049986,(%esp)
 8048ba5:	e8 c6 fc ff ff       	call   8048870 <fopen@plt>
 8048baa:	89 45 f4             	mov    %eax,-0xc(%ebp)
 8048bad:	83 7d f4 00          	cmpl   $0x0,-0xc(%ebp)
 8048bb1:	75 13                	jne    8048bc6 <store_gt+0x36>
 8048bb3:	c7 04 24 8c 99 04 08 	movl   $0x804998c,(%esp)
 8048bba:	e8 d1 fc ff ff       	call   8048890 <printf@plt>
 8048bbf:	b8 00 00 00 00       	mov    $0x0,%eax
 8048bc4:	eb 32                	jmp    8048bf8 <store_gt+0x68>
 8048bc6:	8b 45 f4             	mov    -0xc(%ebp),%eax
 8048bc9:	89 44 24 0c          	mov    %eax,0xc(%esp)
 8048bcd:	c7 44 24 08 01 00 00 	movl   $0x1,0x8(%esp)
 8048bd4:	00 
 8048bd5:	c7 44 24 04 38 02 00 	movl   $0x238,0x4(%esp)
 8048bdc:	00 
 8048bdd:	8b 45 08             	mov    0x8(%ebp),%eax
 8048be0:	89 04 24             	mov    %eax,(%esp)
 8048be3:	e8 08 fd ff ff       	call   80488f0 <fwrite@plt>
 8048be8:	8b 45 f4             	mov    -0xc(%ebp),%eax
 8048beb:	89 04 24             	mov    %eax,(%esp)
 8048bee:	e8 5d fc ff ff       	call   8048850 <fclose@plt>
 8048bf3:	b8 01 00 00 00       	mov    $0x1,%eax
 8048bf8:	c9                   	leave  
 8048bf9:	c3                   	ret    

08048bfa <validatebuf>:
 8048bfa:	55                   	push   %ebp
 8048bfb:	89 e5                	mov    %esp,%ebp
 8048bfd:	83 ec 38             	sub    $0x38,%esp
 8048c00:	83 7d 08 12          	cmpl   $0x12,0x8(%ebp)
 8048c04:	7f 0a                	jg     8048c10 <validatebuf+0x16>
 8048c06:	b8 00 00 00 00       	mov    $0x0,%eax
 8048c0b:	e9 65 01 00 00       	jmp    8048d75 <validatebuf+0x17b>
 8048c10:	8b 55 08             	mov    0x8(%ebp),%edx
 8048c13:	8b 45 0c             	mov    0xc(%ebp),%eax
 8048c16:	01 d0                	add    %edx,%eax
 8048c18:	c6 00 00             	movb   $0x0,(%eax)
 8048c1b:	c7 44 24 08 04 00 00 	movl   $0x4,0x8(%esp)
 8048c22:	00 
 8048c23:	c7 44 24 04 a1 99 04 	movl   $0x80499a1,0x4(%esp)
 8048c2a:	08 
 8048c2b:	8b 45 0c             	mov    0xc(%ebp),%eax
 8048c2e:	89 04 24             	mov    %eax,(%esp)
 8048c31:	e8 1a fd ff ff       	call   8048950 <strncmp@plt>
 8048c36:	85 c0                	test   %eax,%eax
 8048c38:	74 0a                	je     8048c44 <validatebuf+0x4a>
 8048c3a:	b8 00 00 00 00       	mov    $0x0,%eax
 8048c3f:	e9 31 01 00 00       	jmp    8048d75 <validatebuf+0x17b>
 8048c44:	c7 44 24 04 a6 99 04 	movl   $0x80499a6,0x4(%esp)
 8048c4b:	08 
 8048c4c:	8b 45 0c             	mov    0xc(%ebp),%eax
 8048c4f:	89 04 24             	mov    %eax,(%esp)
 8048c52:	e8 a9 fc ff ff       	call   8048900 <strstr@plt>
 8048c57:	89 45 f4             	mov    %eax,-0xc(%ebp)
 8048c5a:	c7 44 24 04 ac 99 04 	movl   $0x80499ac,0x4(%esp)
 8048c61:	08 
 8048c62:	8b 45 0c             	mov    0xc(%ebp),%eax
 8048c65:	89 04 24             	mov    %eax,(%esp)
 8048c68:	e8 93 fc ff ff       	call   8048900 <strstr@plt>
 8048c6d:	89 45 f0             	mov    %eax,-0x10(%ebp)
 8048c70:	c7 44 24 04 b2 99 04 	movl   $0x80499b2,0x4(%esp)
 8048c77:	08 
 8048c78:	8b 45 0c             	mov    0xc(%ebp),%eax
 8048c7b:	89 04 24             	mov    %eax,(%esp)
 8048c7e:	e8 7d fc ff ff       	call   8048900 <strstr@plt>
 8048c83:	89 45 ec             	mov    %eax,-0x14(%ebp)
 8048c86:	83 7d f4 00          	cmpl   $0x0,-0xc(%ebp)
 8048c8a:	74 0c                	je     8048c98 <validatebuf+0x9e>
 8048c8c:	83 7d f0 00          	cmpl   $0x0,-0x10(%ebp)
 8048c90:	74 06                	je     8048c98 <validatebuf+0x9e>
 8048c92:	83 7d ec 00          	cmpl   $0x0,-0x14(%ebp)
 8048c96:	75 0a                	jne    8048ca2 <validatebuf+0xa8>
 8048c98:	b8 00 00 00 00       	mov    $0x0,%eax
 8048c9d:	e9 d3 00 00 00       	jmp    8048d75 <validatebuf+0x17b>
 8048ca2:	8b 45 f0             	mov    -0x10(%ebp),%eax
 8048ca5:	3b 45 f4             	cmp    -0xc(%ebp),%eax
 8048ca8:	76 08                	jbe    8048cb2 <validatebuf+0xb8>
 8048caa:	8b 45 ec             	mov    -0x14(%ebp),%eax
 8048cad:	3b 45 f0             	cmp    -0x10(%ebp),%eax
 8048cb0:	77 0a                	ja     8048cbc <validatebuf+0xc2>
 8048cb2:	b8 00 00 00 00       	mov    $0x0,%eax
 8048cb7:	e9 b9 00 00 00       	jmp    8048d75 <validatebuf+0x17b>
 8048cbc:	8b 45 f4             	mov    -0xc(%ebp),%eax
 8048cbf:	83 e8 04             	sub    $0x4,%eax
 8048cc2:	89 c2                	mov    %eax,%edx
 8048cc4:	8b 45 0c             	mov    0xc(%ebp),%eax
 8048cc7:	29 c2                	sub    %eax,%edx
 8048cc9:	89 d0                	mov    %edx,%eax
 8048ccb:	83 f8 30             	cmp    $0x30,%eax
 8048cce:	7e 0a                	jle    8048cda <validatebuf+0xe0>
 8048cd0:	b8 00 00 00 00       	mov    $0x0,%eax
 8048cd5:	e9 9b 00 00 00       	jmp    8048d75 <validatebuf+0x17b>
 8048cda:	8b 45 f4             	mov    -0xc(%ebp),%eax
 8048cdd:	83 c0 05             	add    $0x5,%eax
 8048ce0:	89 04 24             	mov    %eax,(%esp)
 8048ce3:	e8 c8 fb ff ff       	call   80488b0 <atof@plt>
 8048ce8:	d9 5d e8             	fstps  -0x18(%ebp)
 8048ceb:	d9 45 e8             	flds   -0x18(%ebp)
 8048cee:	d9 05 b0 9a 04 08    	flds   0x8049ab0
 8048cf4:	d9 c9                	fxch   %st(1)
 8048cf6:	df e9                	fucomip %st(1),%st
 8048cf8:	dd d8                	fstp   %st(0)
 8048cfa:	77 11                	ja     8048d0d <validatebuf+0x113>
 8048cfc:	d9 05 b4 9a 04 08    	flds   0x8049ab4
 8048d02:	d9 45 e8             	flds   -0x18(%ebp)
 8048d05:	d9 c9                	fxch   %st(1)
 8048d07:	df e9                	fucomip %st(1),%st
 8048d09:	dd d8                	fstp   %st(0)
 8048d0b:	76 07                	jbe    8048d14 <validatebuf+0x11a>
 8048d0d:	b8 00 00 00 00       	mov    $0x0,%eax
 8048d12:	eb 61                	jmp    8048d75 <validatebuf+0x17b>
 8048d14:	8b 45 f0             	mov    -0x10(%ebp),%eax
 8048d17:	83 c0 05             	add    $0x5,%eax
 8048d1a:	89 04 24             	mov    %eax,(%esp)
 8048d1d:	e8 8e fb ff ff       	call   80488b0 <atof@plt>
 8048d22:	d9 5d e4             	fstps  -0x1c(%ebp)
 8048d25:	d9 45 e4             	flds   -0x1c(%ebp)
 8048d28:	d9 05 b8 9a 04 08    	flds   0x8049ab8
 8048d2e:	d9 c9                	fxch   %st(1)
 8048d30:	df e9                	fucomip %st(1),%st
 8048d32:	dd d8                	fstp   %st(0)
 8048d34:	77 11                	ja     8048d47 <validatebuf+0x14d>
 8048d36:	d9 05 bc 9a 04 08    	flds   0x8049abc
 8048d3c:	d9 45 e4             	flds   -0x1c(%ebp)
 8048d3f:	d9 c9                	fxch   %st(1)
 8048d41:	df e9                	fucomip %st(1),%st
 8048d43:	dd d8                	fstp   %st(0)
 8048d45:	76 07                	jbe    8048d4e <validatebuf+0x154>
 8048d47:	b8 00 00 00 00       	mov    $0x0,%eax
 8048d4c:	eb 27                	jmp    8048d75 <validatebuf+0x17b>
 8048d4e:	8b 55 08             	mov    0x8(%ebp),%edx
 8048d51:	8b 45 0c             	mov    0xc(%ebp),%eax
 8048d54:	01 d0                	add    %edx,%eax
 8048d56:	89 c2                	mov    %eax,%edx
 8048d58:	8b 45 ec             	mov    -0x14(%ebp),%eax
 8048d5b:	29 c2                	sub    %eax,%edx
 8048d5d:	89 d0                	mov    %edx,%eax
 8048d5f:	83 e8 04             	sub    $0x4,%eax
 8048d62:	3d f4 01 00 00       	cmp    $0x1f4,%eax
 8048d67:	7e 07                	jle    8048d70 <validatebuf+0x176>
 8048d69:	b8 00 00 00 00       	mov    $0x0,%eax
 8048d6e:	eb 05                	jmp    8048d75 <validatebuf+0x17b>
 8048d70:	b8 01 00 00 00       	mov    $0x1,%eax
 8048d75:	c9                   	leave  
 8048d76:	c3                   	ret    

08048d77 <processbuf>:
 8048d77:	55                   	push   %ebp
 8048d78:	89 e5                	mov    %esp,%ebp
 8048d7a:	81 ec f8 02 00 00    	sub    $0x2f8,%esp
 8048d80:	8b 55 0c             	mov    0xc(%ebp),%edx
 8048d83:	8b 45 08             	mov    0x8(%ebp),%eax
 8048d86:	01 d0                	add    %edx,%eax
 8048d88:	c6 00 00             	movb   $0x0,(%eax)
 8048d8b:	c7 85 24 fd ff ff 04 	movl   $0x4,-0x2dc(%ebp)
 8048d92:	00 00 00 
 8048d95:	c7 85 28 fd ff ff 00 	movl   $0x0,-0x2d8(%ebp)
 8048d9c:	00 00 00 
 8048d9f:	eb 3b                	jmp    8048ddc <processbuf+0x65>
 8048da1:	8b 85 28 fd ff ff    	mov    -0x2d8(%ebp),%eax
 8048da7:	8b 95 24 fd ff ff    	mov    -0x2dc(%ebp),%edx
 8048dad:	89 d1                	mov    %edx,%ecx
 8048daf:	8b 55 08             	mov    0x8(%ebp),%edx
 8048db2:	01 ca                	add    %ecx,%edx
 8048db4:	0f b6 12             	movzbl (%edx),%edx
 8048db7:	88 94 05 2c fd ff ff 	mov    %dl,-0x2d4(%ebp,%eax,1)
 8048dbe:	8b 85 24 fd ff ff    	mov    -0x2dc(%ebp),%eax
 8048dc4:	83 c0 01             	add    $0x1,%eax
 8048dc7:	89 85 24 fd ff ff    	mov    %eax,-0x2dc(%ebp)
 8048dcd:	8b 85 28 fd ff ff    	mov    -0x2d8(%ebp),%eax
 8048dd3:	83 c0 01             	add    $0x1,%eax
 8048dd6:	89 85 28 fd ff ff    	mov    %eax,-0x2d8(%ebp)
 8048ddc:	8b 85 24 fd ff ff    	mov    -0x2dc(%ebp),%eax
 8048de2:	89 c2                	mov    %eax,%edx
 8048de4:	8b 45 08             	mov    0x8(%ebp),%eax
 8048de7:	01 d0                	add    %edx,%eax
 8048de9:	0f b6 00             	movzbl (%eax),%eax
 8048dec:	3c 3b                	cmp    $0x3b,%al
 8048dee:	75 b1                	jne    8048da1 <processbuf+0x2a>
 8048df0:	8b 85 24 fd ff ff    	mov    -0x2dc(%ebp),%eax
 8048df6:	89 c2                	mov    %eax,%edx
 8048df8:	8b 45 08             	mov    0x8(%ebp),%eax
 8048dfb:	01 d0                	add    %edx,%eax
 8048dfd:	c6 00 00             	movb   $0x0,(%eax)
 8048e00:	8b 85 24 fd ff ff    	mov    -0x2dc(%ebp),%eax
 8048e06:	83 c0 05             	add    $0x5,%eax
 8048e09:	89 85 24 fd ff ff    	mov    %eax,-0x2dc(%ebp)
 8048e0f:	c7 85 28 fd ff ff 00 	movl   $0x0,-0x2d8(%ebp)
 8048e16:	00 00 00 
 8048e19:	eb 3b                	jmp    8048e56 <processbuf+0xdf>
 8048e1b:	8b 85 28 fd ff ff    	mov    -0x2d8(%ebp),%eax
 8048e21:	8b 95 24 fd ff ff    	mov    -0x2dc(%ebp),%edx
 8048e27:	89 d1                	mov    %edx,%ecx
 8048e29:	8b 55 08             	mov    0x8(%ebp),%edx
 8048e2c:	01 ca                	add    %ecx,%edx
 8048e2e:	0f b6 12             	movzbl (%edx),%edx
 8048e31:	88 94 05 5c fd ff ff 	mov    %dl,-0x2a4(%ebp,%eax,1)
 8048e38:	8b 85 24 fd ff ff    	mov    -0x2dc(%ebp),%eax
 8048e3e:	83 c0 01             	add    $0x1,%eax
 8048e41:	89 85 24 fd ff ff    	mov    %eax,-0x2dc(%ebp)
 8048e47:	8b 85 28 fd ff ff    	mov    -0x2d8(%ebp),%eax
 8048e4d:	83 c0 01             	add    $0x1,%eax
 8048e50:	89 85 28 fd ff ff    	mov    %eax,-0x2d8(%ebp)
 8048e56:	8b 85 24 fd ff ff    	mov    -0x2dc(%ebp),%eax
 8048e5c:	89 c2                	mov    %eax,%edx
 8048e5e:	8b 45 08             	mov    0x8(%ebp),%eax
 8048e61:	01 d0                	add    %edx,%eax
 8048e63:	0f b6 00             	movzbl (%eax),%eax
 8048e66:	3c 3b                	cmp    $0x3b,%al
 8048e68:	75 b1                	jne    8048e1b <processbuf+0xa4>
 8048e6a:	8b 85 24 fd ff ff    	mov    -0x2dc(%ebp),%eax
 8048e70:	89 c2                	mov    %eax,%edx
 8048e72:	8b 45 08             	mov    0x8(%ebp),%eax
 8048e75:	01 d0                	add    %edx,%eax
 8048e77:	c6 00 00             	movb   $0x0,(%eax)
 8048e7a:	8b 85 24 fd ff ff    	mov    -0x2dc(%ebp),%eax
 8048e80:	83 c0 05             	add    $0x5,%eax
 8048e83:	89 85 24 fd ff ff    	mov    %eax,-0x2dc(%ebp)
 8048e89:	c7 85 28 fd ff ff 00 	movl   $0x0,-0x2d8(%ebp)
 8048e90:	00 00 00 
 8048e93:	eb 3b                	jmp    8048ed0 <processbuf+0x159>
 8048e95:	8b 85 28 fd ff ff    	mov    -0x2d8(%ebp),%eax
 8048e9b:	8b 95 24 fd ff ff    	mov    -0x2dc(%ebp),%edx
 8048ea1:	89 d1                	mov    %edx,%ecx
 8048ea3:	8b 55 08             	mov    0x8(%ebp),%edx
 8048ea6:	01 ca                	add    %ecx,%edx
 8048ea8:	0f b6 12             	movzbl (%edx),%edx
 8048eab:	88 94 05 66 fd ff ff 	mov    %dl,-0x29a(%ebp,%eax,1)
 8048eb2:	8b 85 24 fd ff ff    	mov    -0x2dc(%ebp),%eax
 8048eb8:	83 c0 01             	add    $0x1,%eax
 8048ebb:	89 85 24 fd ff ff    	mov    %eax,-0x2dc(%ebp)
 8048ec1:	8b 85 28 fd ff ff    	mov    -0x2d8(%ebp),%eax
 8048ec7:	83 c0 01             	add    $0x1,%eax
 8048eca:	89 85 28 fd ff ff    	mov    %eax,-0x2d8(%ebp)
 8048ed0:	8b 85 24 fd ff ff    	mov    -0x2dc(%ebp),%eax
 8048ed6:	89 c2                	mov    %eax,%edx
 8048ed8:	8b 45 08             	mov    0x8(%ebp),%eax
 8048edb:	01 d0                	add    %edx,%eax
 8048edd:	0f b6 00             	movzbl (%eax),%eax
 8048ee0:	3c 3b                	cmp    $0x3b,%al
 8048ee2:	75 b1                	jne    8048e95 <processbuf+0x11e>
 8048ee4:	8b 85 24 fd ff ff    	mov    -0x2dc(%ebp),%eax
 8048eea:	89 c2                	mov    %eax,%edx
 8048eec:	8b 45 08             	mov    0x8(%ebp),%eax
 8048eef:	01 d0                	add    %edx,%eax
 8048ef1:	c6 00 00             	movb   $0x0,(%eax)
 8048ef4:	8b 85 24 fd ff ff    	mov    -0x2dc(%ebp),%eax
 8048efa:	83 c0 05             	add    $0x5,%eax
 8048efd:	89 85 24 fd ff ff    	mov    %eax,-0x2dc(%ebp)
 8048f03:	8b 85 24 fd ff ff    	mov    -0x2dc(%ebp),%eax
 8048f09:	89 c2                	mov    %eax,%edx
 8048f0b:	8b 45 08             	mov    0x8(%ebp),%eax
 8048f0e:	01 d0                	add    %edx,%eax
 8048f10:	89 44 24 04          	mov    %eax,0x4(%esp)
 8048f14:	8d 85 2c fd ff ff    	lea    -0x2d4(%ebp),%eax
 8048f1a:	83 c0 44             	add    $0x44,%eax
 8048f1d:	89 04 24             	mov    %eax,(%esp)
 8048f20:	e8 5b f9 ff ff       	call   8048880 <strcpy@plt>
 8048f25:	8d 85 2c fd ff ff    	lea    -0x2d4(%ebp),%eax
 8048f2b:	89 04 24             	mov    %eax,(%esp)
 8048f2e:	e8 5d fc ff ff       	call   8048b90 <store_gt>
 8048f33:	8d 85 2c fd ff ff    	lea    -0x2d4(%ebp),%eax
 8048f39:	89 44 24 08          	mov    %eax,0x8(%esp)
 8048f3d:	c7 44 24 04 b8 99 04 	movl   $0x80499b8,0x4(%esp)
 8048f44:	08 
 8048f45:	8d 45 c8             	lea    -0x38(%ebp),%eax
 8048f48:	89 04 24             	mov    %eax,(%esp)
 8048f4b:	e8 30 f8 ff ff       	call   8048780 <sprintf@plt>
 8048f50:	8d 45 c8             	lea    -0x38(%ebp),%eax
 8048f53:	89 04 24             	mov    %eax,(%esp)
 8048f56:	e8 05 f9 ff ff       	call   8048860 <strlen@plt>
 8048f5b:	89 44 24 08          	mov    %eax,0x8(%esp)
 8048f5f:	8d 45 c8             	lea    -0x38(%ebp),%eax
 8048f62:	89 44 24 04          	mov    %eax,0x4(%esp)
 8048f66:	8b 45 10             	mov    0x10(%ebp),%eax
 8048f69:	89 04 24             	mov    %eax,(%esp)
 8048f6c:	e8 5f f8 ff ff       	call   80487d0 <write@plt>
 8048f71:	89 85 24 fd ff ff    	mov    %eax,-0x2dc(%ebp)
 8048f77:	8d 45 c8             	lea    -0x38(%ebp),%eax
 8048f7a:	89 04 24             	mov    %eax,(%esp)
 8048f7d:	e8 de f8 ff ff       	call   8048860 <strlen@plt>
 8048f82:	89 c2                	mov    %eax,%edx
 8048f84:	8b 85 24 fd ff ff    	mov    -0x2dc(%ebp),%eax
 8048f8a:	89 54 24 08          	mov    %edx,0x8(%esp)
 8048f8e:	89 44 24 04          	mov    %eax,0x4(%esp)
 8048f92:	8d 85 64 ff ff ff    	lea    -0x9c(%ebp),%eax
 8048f98:	89 04 24             	mov    %eax,(%esp)
 8048f9b:	e8 76 fb ff ff       	call   8048b16 <check_error>
 8048fa0:	89 85 24 fd ff ff    	mov    %eax,-0x2dc(%ebp)
 8048fa6:	8b 85 24 fd ff ff    	mov    -0x2dc(%ebp),%eax
 8048fac:	83 f8 01             	cmp    $0x1,%eax
 8048faf:	75 0e                	jne    8048fbf <processbuf+0x248>
 8048fb1:	8d 85 64 ff ff ff    	lea    -0x9c(%ebp),%eax
 8048fb7:	89 04 24             	mov    %eax,(%esp)
 8048fba:	e8 d1 f8 ff ff       	call   8048890 <printf@plt>
 8048fbf:	8b 85 24 fd ff ff    	mov    -0x2dc(%ebp),%eax
 8048fc5:	c9                   	leave  
 8048fc6:	c3                   	ret    

08048fc7 <server>:
 8048fc7:	55                   	push   %ebp
 8048fc8:	89 e5                	mov    %esp,%ebp
 8048fca:	57                   	push   %edi
 8048fcb:	56                   	push   %esi
 8048fcc:	53                   	push   %ebx
 8048fcd:	81 ec fc 00 00 00    	sub    $0xfc,%esp
 8048fd3:	c7 45 c0 01 00 00 00 	movl   $0x1,-0x40(%ebp)
 8048fda:	c7 44 24 08 00 00 00 	movl   $0x0,0x8(%esp)
 8048fe1:	00 
 8048fe2:	c7 44 24 04 01 00 00 	movl   $0x1,0x4(%esp)
 8048fe9:	00 
 8048fea:	c7 04 24 02 00 00 00 	movl   $0x2,(%esp)
 8048ff1:	e8 4a f8 ff ff       	call   8048840 <socket@plt>
 8048ff6:	89 45 d0             	mov    %eax,-0x30(%ebp)
 8048ff9:	83 7d d0 ff          	cmpl   $0xffffffff,-0x30(%ebp)
 8048ffd:	75 16                	jne    8049015 <server+0x4e>
 8048fff:	c7 04 24 d4 99 04 08 	movl   $0x80499d4,(%esp)
 8049006:	e8 05 f9 ff ff       	call   8048910 <puts@plt>
 804900b:	b8 00 00 00 00       	mov    $0x0,%eax
 8049010:	e9 7a 06 00 00       	jmp    804968f <server+0x6c8>
 8049015:	c7 44 24 10 04 00 00 	movl   $0x4,0x10(%esp)
 804901c:	00 
 804901d:	8d 45 c0             	lea    -0x40(%ebp),%eax
 8049020:	89 44 24 0c          	mov    %eax,0xc(%esp)
 8049024:	c7 44 24 08 02 00 00 	movl   $0x2,0x8(%esp)
 804902b:	00 
 804902c:	c7 44 24 04 01 00 00 	movl   $0x1,0x4(%esp)
 8049033:	00 
 8049034:	8b 45 d0             	mov    -0x30(%ebp),%eax
 8049037:	89 04 24             	mov    %eax,(%esp)
 804903a:	e8 e1 f8 ff ff       	call   8048920 <setsockopt@plt>
 804903f:	83 f8 ff             	cmp    $0xffffffff,%eax
 8049042:	75 17                	jne    804905b <server+0x94>
 8049044:	e8 27 f7 ff ff       	call   8048770 <__errno_location@plt>
 8049049:	8b 00                	mov    (%eax),%eax
 804904b:	89 44 24 04          	mov    %eax,0x4(%esp)
 804904f:	c7 04 24 f4 99 04 08 	movl   $0x80499f4,(%esp)
 8049056:	e8 35 f8 ff ff       	call   8048890 <printf@plt>
 804905b:	66 c7 05 a0 2d 05 08 	movw   $0x2,0x8052da0
 8049062:	02 00 
 8049064:	a1 38 ae 04 08       	mov    0x804ae38,%eax
 8049069:	0f b7 c0             	movzwl %ax,%eax
 804906c:	89 04 24             	mov    %eax,(%esp)
 804906f:	e8 8c f7 ff ff       	call   8048800 <htons@plt>
 8049074:	66 a3 a2 2d 05 08    	mov    %ax,0x8052da2
 804907a:	c7 04 24 00 00 00 00 	movl   $0x0,(%esp)
 8049081:	e8 ba f8 ff ff       	call   8048940 <htonl@plt>
 8049086:	a3 a4 2d 05 08       	mov    %eax,0x8052da4
 804908b:	c7 44 24 08 10 00 00 	movl   $0x10,0x8(%esp)
 8049092:	00 
 8049093:	c7 44 24 04 a0 2d 05 	movl   $0x8052da0,0x4(%esp)
 804909a:	08 
 804909b:	8b 45 d0             	mov    -0x30(%ebp),%eax
 804909e:	89 04 24             	mov    %eax,(%esp)
 80490a1:	e8 fa f7 ff ff       	call   80488a0 <bind@plt>
 80490a6:	83 f8 ff             	cmp    $0xffffffff,%eax
 80490a9:	75 21                	jne    80490cc <server+0x105>
 80490ab:	e8 c0 f6 ff ff       	call   8048770 <__errno_location@plt>
 80490b0:	8b 00                	mov    (%eax),%eax
 80490b2:	89 44 24 04          	mov    %eax,0x4(%esp)
 80490b6:	c7 04 24 22 9a 04 08 	movl   $0x8049a22,(%esp)
 80490bd:	e8 ce f7 ff ff       	call   8048890 <printf@plt>
 80490c2:	b8 00 00 00 00       	mov    $0x0,%eax
 80490c7:	e9 c3 05 00 00       	jmp    804968f <server+0x6c8>
 80490cc:	c7 44 24 04 0a 00 00 	movl   $0xa,0x4(%esp)
 80490d3:	00 
 80490d4:	8b 45 d0             	mov    -0x30(%ebp),%eax
 80490d7:	89 04 24             	mov    %eax,(%esp)
 80490da:	e8 01 f7 ff ff       	call   80487e0 <listen@plt>
 80490df:	85 c0                	test   %eax,%eax
 80490e1:	79 16                	jns    80490f9 <server+0x132>
 80490e3:	c7 04 24 3a 9a 04 08 	movl   $0x8049a3a,(%esp)
 80490ea:	e8 21 f8 ff ff       	call   8048910 <puts@plt>
 80490ef:	b8 00 00 00 00       	mov    $0x0,%eax
 80490f4:	e9 96 05 00 00       	jmp    804968f <server+0x6c8>
 80490f9:	8b 45 d0             	mov    -0x30(%ebp),%eax
 80490fc:	89 45 dc             	mov    %eax,-0x24(%ebp)
 80490ff:	b8 00 00 00 00       	mov    $0x0,%eax
 8049104:	b9 20 00 00 00       	mov    $0x20,%ecx
 8049109:	ba 20 2d 05 08       	mov    $0x8052d20,%edx
 804910e:	89 d7                	mov    %edx,%edi
 8049110:	fc                   	cld    
 8049111:	f3 ab                	rep stos %eax,%es:(%edi)
 8049113:	89 fa                	mov    %edi,%edx
 8049115:	89 4d cc             	mov    %ecx,-0x34(%ebp)
 8049118:	89 55 c8             	mov    %edx,-0x38(%ebp)
 804911b:	8b 45 d0             	mov    -0x30(%ebp),%eax
 804911e:	8d 50 1f             	lea    0x1f(%eax),%edx
 8049121:	85 c0                	test   %eax,%eax
 8049123:	0f 48 c2             	cmovs  %edx,%eax
 8049126:	c1 f8 05             	sar    $0x5,%eax
 8049129:	8b 1c 85 20 2d 05 08 	mov    0x8052d20(,%eax,4),%ebx
 8049130:	8b 55 d0             	mov    -0x30(%ebp),%edx
 8049133:	89 d1                	mov    %edx,%ecx
 8049135:	c1 f9 1f             	sar    $0x1f,%ecx
 8049138:	c1 e9 1b             	shr    $0x1b,%ecx
 804913b:	01 ca                	add    %ecx,%edx
 804913d:	83 e2 1f             	and    $0x1f,%edx
 8049140:	29 ca                	sub    %ecx,%edx
 8049142:	be 01 00 00 00       	mov    $0x1,%esi
 8049147:	89 d1                	mov    %edx,%ecx
 8049149:	d3 e6                	shl    %cl,%esi
 804914b:	89 f2                	mov    %esi,%edx
 804914d:	09 da                	or     %ebx,%edx
 804914f:	89 14 85 20 2d 05 08 	mov    %edx,0x8052d20(,%eax,4)
 8049156:	c7 45 d8 00 00 00 00 	movl   $0x0,-0x28(%ebp)
 804915d:	c7 85 28 ff ff ff 01 	movl   $0x1,-0xd8(%ebp)
 8049164:	00 00 00 
 8049167:	c7 85 2c ff ff ff 00 	movl   $0x0,-0xd4(%ebp)
 804916e:	00 00 00 
 8049171:	c7 04 24 57 9a 04 08 	movl   $0x8049a57,(%esp)
 8049178:	e8 93 f7 ff ff       	call   8048910 <puts@plt>
 804917d:	8d 95 40 ff ff ff    	lea    -0xc0(%ebp),%edx
 8049183:	bb 20 2d 05 08       	mov    $0x8052d20,%ebx
 8049188:	b8 20 00 00 00       	mov    $0x20,%eax
 804918d:	89 d7                	mov    %edx,%edi
 804918f:	89 de                	mov    %ebx,%esi
 8049191:	89 c1                	mov    %eax,%ecx
 8049193:	f3 a5                	rep movsl %ds:(%esi),%es:(%edi)
 8049195:	8b 45 dc             	mov    -0x24(%ebp),%eax
 8049198:	8d 50 01             	lea    0x1(%eax),%edx
 804919b:	8d 85 28 ff ff ff    	lea    -0xd8(%ebp),%eax
 80491a1:	89 44 24 10          	mov    %eax,0x10(%esp)
 80491a5:	c7 44 24 0c 00 00 00 	movl   $0x0,0xc(%esp)
 80491ac:	00 
 80491ad:	c7 44 24 08 00 00 00 	movl   $0x0,0x8(%esp)
 80491b4:	00 
 80491b5:	8d 85 40 ff ff ff    	lea    -0xc0(%ebp),%eax
 80491bb:	89 44 24 04          	mov    %eax,0x4(%esp)
 80491bf:	89 14 24             	mov    %edx,(%esp)
 80491c2:	e8 f9 f6 ff ff       	call   80488c0 <select@plt>
 80491c7:	8b 45 d0             	mov    -0x30(%ebp),%eax
 80491ca:	8d 50 1f             	lea    0x1f(%eax),%edx
 80491cd:	85 c0                	test   %eax,%eax
 80491cf:	0f 48 c2             	cmovs  %edx,%eax
 80491d2:	c1 f8 05             	sar    $0x5,%eax
 80491d5:	8b 9c 85 40 ff ff ff 	mov    -0xc0(%ebp,%eax,4),%ebx
 80491dc:	8b 45 d0             	mov    -0x30(%ebp),%eax
 80491df:	99                   	cltd   
 80491e0:	c1 ea 1b             	shr    $0x1b,%edx
 80491e3:	01 d0                	add    %edx,%eax
 80491e5:	83 e0 1f             	and    $0x1f,%eax
 80491e8:	29 d0                	sub    %edx,%eax
 80491ea:	89 c1                	mov    %eax,%ecx
 80491ec:	d3 fb                	sar    %cl,%ebx
 80491ee:	89 d8                	mov    %ebx,%eax
 80491f0:	83 e0 01             	and    $0x1,%eax
 80491f3:	85 c0                	test   %eax,%eax
 80491f5:	0f 84 8d 01 00 00    	je     8049388 <server+0x3c1>
 80491fb:	83 7d d8 1e          	cmpl   $0x1e,-0x28(%ebp)
 80491ff:	0f 8f 79 01 00 00    	jg     804937e <server+0x3b7>
 8049205:	c7 04 24 61 9a 04 08 	movl   $0x8049a61,(%esp)
 804920c:	e8 ff f6 ff ff       	call   8048910 <puts@plt>
 8049211:	c7 85 24 ff ff ff 10 	movl   $0x10,-0xdc(%ebp)
 8049218:	00 00 00 
 804921b:	8b 5d d8             	mov    -0x28(%ebp),%ebx
 804921e:	8d 43 01             	lea    0x1(%ebx),%eax
 8049221:	89 45 d8             	mov    %eax,-0x28(%ebp)
 8049224:	8d 85 24 ff ff ff    	lea    -0xdc(%ebp),%eax
 804922a:	89 44 24 08          	mov    %eax,0x8(%esp)
 804922e:	8d 85 30 ff ff ff    	lea    -0xd0(%ebp),%eax
 8049234:	89 44 24 04          	mov    %eax,0x4(%esp)
 8049238:	8b 45 d0             	mov    -0x30(%ebp),%eax
 804923b:	89 04 24             	mov    %eax,(%esp)
 804923e:	e8 ed f5 ff ff       	call   8048830 <accept@plt>
 8049243:	69 d3 f4 03 00 00    	imul   $0x3f4,%ebx,%edx
 8049249:	81 c2 80 ae 04 08    	add    $0x804ae80,%edx
 804924f:	89 02                	mov    %eax,(%edx)
 8049251:	8b 45 d8             	mov    -0x28(%ebp),%eax
 8049254:	83 e8 01             	sub    $0x1,%eax
 8049257:	69 c0 f4 03 00 00    	imul   $0x3f4,%eax,%eax
 804925d:	05 80 ae 04 08       	add    $0x804ae80,%eax
 8049262:	8b 00                	mov    (%eax),%eax
 8049264:	85 c0                	test   %eax,%eax
 8049266:	79 21                	jns    8049289 <server+0x2c2>
 8049268:	e8 03 f5 ff ff       	call   8048770 <__errno_location@plt>
 804926d:	8b 00                	mov    (%eax),%eax
 804926f:	89 44 24 04          	mov    %eax,0x4(%esp)
 8049273:	c7 04 24 6f 9a 04 08 	movl   $0x8049a6f,(%esp)
 804927a:	e8 11 f6 ff ff       	call   8048890 <printf@plt>
 804927f:	b8 00 00 00 00       	mov    $0x0,%eax
 8049284:	e9 06 04 00 00       	jmp    804968f <server+0x6c8>
 8049289:	8b 45 d8             	mov    -0x28(%ebp),%eax
 804928c:	83 e8 01             	sub    $0x1,%eax
 804928f:	69 c0 f4 03 00 00    	imul   $0x3f4,%eax,%eax
 8049295:	05 80 ae 04 08       	add    $0x804ae80,%eax
 804929a:	8b 00                	mov    (%eax),%eax
 804929c:	3b 45 dc             	cmp    -0x24(%ebp),%eax
 804929f:	7e 16                	jle    80492b7 <server+0x2f0>
 80492a1:	8b 45 d8             	mov    -0x28(%ebp),%eax
 80492a4:	83 e8 01             	sub    $0x1,%eax
 80492a7:	69 c0 f4 03 00 00    	imul   $0x3f4,%eax,%eax
 80492ad:	05 80 ae 04 08       	add    $0x804ae80,%eax
 80492b2:	8b 00                	mov    (%eax),%eax
 80492b4:	89 45 dc             	mov    %eax,-0x24(%ebp)
 80492b7:	c7 44 24 04 00 00 00 	movl   $0x0,0x4(%esp)
 80492be:	00 
 80492bf:	c7 04 24 00 2d 05 08 	movl   $0x8052d00,(%esp)
 80492c6:	e8 55 f5 ff ff       	call   8048820 <gettimeofday@plt>
 80492cb:	8b 45 d8             	mov    -0x28(%ebp),%eax
 80492ce:	8d 50 ff             	lea    -0x1(%eax),%edx
 80492d1:	a1 00 2d 05 08       	mov    0x8052d00,%eax
 80492d6:	69 d2 f4 03 00 00    	imul   $0x3f4,%edx,%edx
 80492dc:	81 c2 70 b2 04 08    	add    $0x804b270,%edx
 80492e2:	89 02                	mov    %eax,(%edx)
 80492e4:	8b 45 d8             	mov    -0x28(%ebp),%eax
 80492e7:	83 e8 01             	sub    $0x1,%eax
 80492ea:	69 c0 f4 03 00 00    	imul   $0x3f4,%eax,%eax
 80492f0:	05 80 ae 04 08       	add    $0x804ae80,%eax
 80492f5:	83 c0 04             	add    $0x4,%eax
 80492f8:	c7 44 24 04 e8 03 00 	movl   $0x3e8,0x4(%esp)
 80492ff:	00 
 8049300:	89 04 24             	mov    %eax,(%esp)
 8049303:	e8 28 f6 ff ff       	call   8048930 <bzero@plt>
 8049308:	8b 45 d8             	mov    -0x28(%ebp),%eax
 804930b:	83 e8 01             	sub    $0x1,%eax
 804930e:	69 c0 f4 03 00 00    	imul   $0x3f4,%eax,%eax
 8049314:	05 60 b2 04 08       	add    $0x804b260,%eax
 8049319:	c7 40 0c 00 00 00 00 	movl   $0x0,0xc(%eax)
 8049320:	8b 45 d8             	mov    -0x28(%ebp),%eax
 8049323:	83 e8 01             	sub    $0x1,%eax
 8049326:	69 c0 f4 03 00 00    	imul   $0x3f4,%eax,%eax
 804932c:	05 80 ae 04 08       	add    $0x804ae80,%eax
 8049331:	8b 00                	mov    (%eax),%eax
 8049333:	8d 50 1f             	lea    0x1f(%eax),%edx
 8049336:	85 c0                	test   %eax,%eax
 8049338:	0f 48 c2             	cmovs  %edx,%eax
 804933b:	c1 f8 05             	sar    $0x5,%eax
 804933e:	8b 1c 85 20 2d 05 08 	mov    0x8052d20(,%eax,4),%ebx
 8049345:	8b 55 d8             	mov    -0x28(%ebp),%edx
 8049348:	83 ea 01             	sub    $0x1,%edx
 804934b:	69 d2 f4 03 00 00    	imul   $0x3f4,%edx,%edx
 8049351:	81 c2 80 ae 04 08    	add    $0x804ae80,%edx
 8049357:	8b 12                	mov    (%edx),%edx
 8049359:	89 d1                	mov    %edx,%ecx
 804935b:	c1 f9 1f             	sar    $0x1f,%ecx
 804935e:	c1 e9 1b             	shr    $0x1b,%ecx
 8049361:	01 ca                	add    %ecx,%edx
 8049363:	83 e2 1f             	and    $0x1f,%edx
 8049366:	29 ca                	sub    %ecx,%edx
 8049368:	be 01 00 00 00       	mov    $0x1,%esi
 804936d:	89 d1                	mov    %edx,%ecx
 804936f:	d3 e6                	shl    %cl,%esi
 8049371:	89 f2                	mov    %esi,%edx
 8049373:	09 da                	or     %ebx,%edx
 8049375:	89 14 85 20 2d 05 08 	mov    %edx,0x8052d20(,%eax,4)
 804937c:	eb 0a                	jmp    8049388 <server+0x3c1>
 804937e:	b8 00 00 00 00       	mov    $0x0,%eax
 8049383:	e9 07 03 00 00       	jmp    804968f <server+0x6c8>
 8049388:	c7 45 d4 00 00 00 00 	movl   $0x0,-0x2c(%ebp)
 804938f:	e9 dd 01 00 00       	jmp    8049571 <server+0x5aa>
 8049394:	8b 45 d4             	mov    -0x2c(%ebp),%eax
 8049397:	69 c0 f4 03 00 00    	imul   $0x3f4,%eax,%eax
 804939d:	05 80 ae 04 08       	add    $0x804ae80,%eax
 80493a2:	8b 00                	mov    (%eax),%eax
 80493a4:	85 c0                	test   %eax,%eax
 80493a6:	79 05                	jns    80493ad <server+0x3e6>
 80493a8:	e9 c0 01 00 00       	jmp    804956d <server+0x5a6>
 80493ad:	8b 45 d4             	mov    -0x2c(%ebp),%eax
 80493b0:	69 c0 f4 03 00 00    	imul   $0x3f4,%eax,%eax
 80493b6:	05 80 ae 04 08       	add    $0x804ae80,%eax
 80493bb:	8b 00                	mov    (%eax),%eax
 80493bd:	8d 50 1f             	lea    0x1f(%eax),%edx
 80493c0:	85 c0                	test   %eax,%eax
 80493c2:	0f 48 c2             	cmovs  %edx,%eax
 80493c5:	c1 f8 05             	sar    $0x5,%eax
 80493c8:	8b 9c 85 40 ff ff ff 	mov    -0xc0(%ebp,%eax,4),%ebx
 80493cf:	8b 45 d4             	mov    -0x2c(%ebp),%eax
 80493d2:	69 c0 f4 03 00 00    	imul   $0x3f4,%eax,%eax
 80493d8:	05 80 ae 04 08       	add    $0x804ae80,%eax
 80493dd:	8b 00                	mov    (%eax),%eax
 80493df:	99                   	cltd   
 80493e0:	c1 ea 1b             	shr    $0x1b,%edx
 80493e3:	01 d0                	add    %edx,%eax
 80493e5:	83 e0 1f             	and    $0x1f,%eax
 80493e8:	29 d0                	sub    %edx,%eax
 80493ea:	89 c1                	mov    %eax,%ecx
 80493ec:	d3 fb                	sar    %cl,%ebx
 80493ee:	89 d8                	mov    %ebx,%eax
 80493f0:	83 e0 01             	and    $0x1,%eax
 80493f3:	85 c0                	test   %eax,%eax
 80493f5:	0f 84 72 01 00 00    	je     804956d <server+0x5a6>
 80493fb:	c7 45 c4 00 00 00 00 	movl   $0x0,-0x3c(%ebp)
 8049402:	8b 45 d4             	mov    -0x2c(%ebp),%eax
 8049405:	69 c0 f4 03 00 00    	imul   $0x3f4,%eax,%eax
 804940b:	05 60 b2 04 08       	add    $0x804b260,%eax
 8049410:	8b 40 0c             	mov    0xc(%eax),%eax
 8049413:	ba e7 03 00 00       	mov    $0x3e7,%edx
 8049418:	29 c2                	sub    %eax,%edx
 804941a:	89 d0                	mov    %edx,%eax
 804941c:	89 c2                	mov    %eax,%edx
 804941e:	8b 45 d4             	mov    -0x2c(%ebp),%eax
 8049421:	69 c0 f4 03 00 00    	imul   $0x3f4,%eax,%eax
 8049427:	05 60 b2 04 08       	add    $0x804b260,%eax
 804942c:	8b 40 0c             	mov    0xc(%eax),%eax
 804942f:	8b 4d d4             	mov    -0x2c(%ebp),%ecx
 8049432:	69 c9 f4 03 00 00    	imul   $0x3f4,%ecx,%ecx
 8049438:	01 c8                	add    %ecx,%eax
 804943a:	05 80 ae 04 08       	add    $0x804ae80,%eax
 804943f:	8d 48 04             	lea    0x4(%eax),%ecx
 8049442:	8b 45 d4             	mov    -0x2c(%ebp),%eax
 8049445:	69 c0 f4 03 00 00    	imul   $0x3f4,%eax,%eax
 804944b:	05 80 ae 04 08       	add    $0x804ae80,%eax
 8049450:	8b 00                	mov    (%eax),%eax
 8049452:	89 54 24 08          	mov    %edx,0x8(%esp)
 8049456:	89 4c 24 04          	mov    %ecx,0x4(%esp)
 804945a:	89 04 24             	mov    %eax,(%esp)
 804945d:	e8 ae f3 ff ff       	call   8048810 <read@plt>
 8049462:	89 45 c4             	mov    %eax,-0x3c(%ebp)
 8049465:	8b 45 d4             	mov    -0x2c(%ebp),%eax
 8049468:	69 c0 f4 03 00 00    	imul   $0x3f4,%eax,%eax
 804946e:	05 60 b2 04 08       	add    $0x804b260,%eax
 8049473:	8b 50 0c             	mov    0xc(%eax),%edx
 8049476:	8b 45 c4             	mov    -0x3c(%ebp),%eax
 8049479:	01 c2                	add    %eax,%edx
 804947b:	8b 45 d4             	mov    -0x2c(%ebp),%eax
 804947e:	69 c0 f4 03 00 00    	imul   $0x3f4,%eax,%eax
 8049484:	05 60 b2 04 08       	add    $0x804b260,%eax
 8049489:	89 50 0c             	mov    %edx,0xc(%eax)
 804948c:	83 7d c4 00          	cmpl   $0x0,-0x3c(%ebp)
 8049490:	75 1b                	jne    80494ad <server+0x4e6>
 8049492:	8b 45 d4             	mov    -0x2c(%ebp),%eax
 8049495:	69 c0 f4 03 00 00    	imul   $0x3f4,%eax,%eax
 804949b:	05 80 ae 04 08       	add    $0x804ae80,%eax
 80494a0:	89 04 24             	mov    %eax,(%esp)
 80494a3:	e8 08 f6 ff ff       	call   8048ab0 <close_connec>
 80494a8:	e9 96 00 00 00       	jmp    8049543 <server+0x57c>
 80494ad:	8b 45 d4             	mov    -0x2c(%ebp),%eax
 80494b0:	69 c0 f4 03 00 00    	imul   $0x3f4,%eax,%eax
 80494b6:	05 80 ae 04 08       	add    $0x804ae80,%eax
 80494bb:	8d 50 04             	lea    0x4(%eax),%edx
 80494be:	8b 45 d4             	mov    -0x2c(%ebp),%eax
 80494c1:	69 c0 f4 03 00 00    	imul   $0x3f4,%eax,%eax
 80494c7:	05 60 b2 04 08       	add    $0x804b260,%eax
 80494cc:	8b 40 0c             	mov    0xc(%eax),%eax
 80494cf:	89 54 24 04          	mov    %edx,0x4(%esp)
 80494d3:	89 04 24             	mov    %eax,(%esp)
 80494d6:	e8 1f f7 ff ff       	call   8048bfa <validatebuf>
 80494db:	85 c0                	test   %eax,%eax
 80494dd:	74 43                	je     8049522 <server+0x55b>
 80494df:	8b 45 d4             	mov    -0x2c(%ebp),%eax
 80494e2:	69 c0 f4 03 00 00    	imul   $0x3f4,%eax,%eax
 80494e8:	05 80 ae 04 08       	add    $0x804ae80,%eax
 80494ed:	8b 10                	mov    (%eax),%edx
 80494ef:	8b 45 d4             	mov    -0x2c(%ebp),%eax
 80494f2:	69 c0 f4 03 00 00    	imul   $0x3f4,%eax,%eax
 80494f8:	05 60 b2 04 08       	add    $0x804b260,%eax
 80494fd:	8b 40 0c             	mov    0xc(%eax),%eax
 8049500:	8b 4d d4             	mov    -0x2c(%ebp),%ecx
 8049503:	69 c9 f4 03 00 00    	imul   $0x3f4,%ecx,%ecx
 8049509:	81 c1 80 ae 04 08    	add    $0x804ae80,%ecx
 804950f:	83 c1 04             	add    $0x4,%ecx
 8049512:	89 54 24 08          	mov    %edx,0x8(%esp)
 8049516:	89 44 24 04          	mov    %eax,0x4(%esp)
 804951a:	89 0c 24             	mov    %ecx,(%esp)
 804951d:	e8 55 f8 ff ff       	call   8048d77 <processbuf>
 8049522:	8b 45 d4             	mov    -0x2c(%ebp),%eax
 8049525:	69 c0 f4 03 00 00    	imul   $0x3f4,%eax,%eax
 804952b:	05 80 ae 04 08       	add    $0x804ae80,%eax
 8049530:	83 c0 04             	add    $0x4,%eax
 8049533:	c7 44 24 04 e8 03 00 	movl   $0x3e8,0x4(%esp)
 804953a:	00 
 804953b:	89 04 24             	mov    %eax,(%esp)
 804953e:	e8 ed f3 ff ff       	call   8048930 <bzero@plt>
 8049543:	c7 44 24 04 00 00 00 	movl   $0x0,0x4(%esp)
 804954a:	00 
 804954b:	c7 04 24 00 2d 05 08 	movl   $0x8052d00,(%esp)
 8049552:	e8 c9 f2 ff ff       	call   8048820 <gettimeofday@plt>
 8049557:	a1 00 2d 05 08       	mov    0x8052d00,%eax
 804955c:	8b 55 d4             	mov    -0x2c(%ebp),%edx
 804955f:	69 d2 f4 03 00 00    	imul   $0x3f4,%edx,%edx
 8049565:	81 c2 70 b2 04 08    	add    $0x804b270,%edx
 804956b:	89 02                	mov    %eax,(%edx)
 804956d:	83 45 d4 01          	addl   $0x1,-0x2c(%ebp)
 8049571:	8b 45 d4             	mov    -0x2c(%ebp),%eax
 8049574:	3b 45 d8             	cmp    -0x28(%ebp),%eax
 8049577:	0f 8c 17 fe ff ff    	jl     8049394 <server+0x3cd>
 804957d:	c7 44 24 04 00 00 00 	movl   $0x0,0x4(%esp)
 8049584:	00 
 8049585:	c7 04 24 00 2d 05 08 	movl   $0x8052d00,(%esp)
 804958c:	e8 8f f2 ff ff       	call   8048820 <gettimeofday@plt>
 8049591:	c7 45 d4 00 00 00 00 	movl   $0x0,-0x2c(%ebp)
 8049598:	eb 4f                	jmp    80495e9 <server+0x622>
 804959a:	8b 45 d4             	mov    -0x2c(%ebp),%eax
 804959d:	69 c0 f4 03 00 00    	imul   $0x3f4,%eax,%eax
 80495a3:	05 80 ae 04 08       	add    $0x804ae80,%eax
 80495a8:	8b 00                	mov    (%eax),%eax
 80495aa:	85 c0                	test   %eax,%eax
 80495ac:	79 02                	jns    80495b0 <server+0x5e9>
 80495ae:	eb 35                	jmp    80495e5 <server+0x61e>
 80495b0:	8b 15 00 2d 05 08    	mov    0x8052d00,%edx
 80495b6:	8b 45 d4             	mov    -0x2c(%ebp),%eax
 80495b9:	69 c0 f4 03 00 00    	imul   $0x3f4,%eax,%eax
 80495bf:	05 70 b2 04 08       	add    $0x804b270,%eax
 80495c4:	8b 00                	mov    (%eax),%eax
 80495c6:	29 c2                	sub    %eax,%edx
 80495c8:	89 d0                	mov    %edx,%eax
 80495ca:	83 f8 05             	cmp    $0x5,%eax
 80495cd:	7e 16                	jle    80495e5 <server+0x61e>
 80495cf:	8b 45 d4             	mov    -0x2c(%ebp),%eax
 80495d2:	69 c0 f4 03 00 00    	imul   $0x3f4,%eax,%eax
 80495d8:	05 80 ae 04 08       	add    $0x804ae80,%eax
 80495dd:	89 04 24             	mov    %eax,(%esp)
 80495e0:	e8 cb f4 ff ff       	call   8048ab0 <close_connec>
 80495e5:	83 45 d4 01          	addl   $0x1,-0x2c(%ebp)
 80495e9:	8b 45 d4             	mov    -0x2c(%ebp),%eax
 80495ec:	3b 45 d8             	cmp    -0x28(%ebp),%eax
 80495ef:	7c a9                	jl     804959a <server+0x5d3>
 80495f1:	83 7d d8 0a          	cmpl   $0xa,-0x28(%ebp)
 80495f5:	0f 85 8f 00 00 00    	jne    804968a <server+0x6c3>
 80495fb:	c7 45 e0 00 00 00 00 	movl   $0x0,-0x20(%ebp)
 8049602:	c7 45 e4 00 00 00 00 	movl   $0x0,-0x1c(%ebp)
 8049609:	eb 6c                	jmp    8049677 <server+0x6b0>
 804960b:	8b 45 e4             	mov    -0x1c(%ebp),%eax
 804960e:	69 c0 f4 03 00 00    	imul   $0x3f4,%eax,%eax
 8049614:	05 80 ae 04 08       	add    $0x804ae80,%eax
 8049619:	8b 00                	mov    (%eax),%eax
 804961b:	85 c0                	test   %eax,%eax
 804961d:	78 54                	js     8049673 <server+0x6ac>
 804961f:	8b 45 e0             	mov    -0x20(%ebp),%eax
 8049622:	3b 45 e4             	cmp    -0x1c(%ebp),%eax
 8049625:	75 06                	jne    804962d <server+0x666>
 8049627:	83 45 e0 01          	addl   $0x1,-0x20(%ebp)
 804962b:	eb 46                	jmp    8049673 <server+0x6ac>
 804962d:	8b 45 e0             	mov    -0x20(%ebp),%eax
 8049630:	8d 50 01             	lea    0x1(%eax),%edx
 8049633:	89 55 e0             	mov    %edx,-0x20(%ebp)
 8049636:	69 c0 f4 03 00 00    	imul   $0x3f4,%eax,%eax
 804963c:	8d 90 80 ae 04 08    	lea    0x804ae80(%eax),%edx
 8049642:	8b 45 e4             	mov    -0x1c(%ebp),%eax
 8049645:	69 c0 f4 03 00 00    	imul   $0x3f4,%eax,%eax
 804964b:	05 80 ae 04 08       	add    $0x804ae80,%eax
 8049650:	89 c3                	mov    %eax,%ebx
 8049652:	b8 fd 00 00 00       	mov    $0xfd,%eax
 8049657:	89 d7                	mov    %edx,%edi
 8049659:	89 de                	mov    %ebx,%esi
 804965b:	89 c1                	mov    %eax,%ecx
 804965d:	f3 a5                	rep movsl %ds:(%esi),%es:(%edi)
 804965f:	8b 45 e4             	mov    -0x1c(%ebp),%eax
 8049662:	69 c0 f4 03 00 00    	imul   $0x3f4,%eax,%eax
 8049668:	05 80 ae 04 08       	add    $0x804ae80,%eax
 804966d:	c7 00 ff ff ff ff    	movl   $0xffffffff,(%eax)
 8049673:	83 45 e4 01          	addl   $0x1,-0x1c(%ebp)
 8049677:	8b 45 e4             	mov    -0x1c(%ebp),%eax
 804967a:	3b 45 d8             	cmp    -0x28(%ebp),%eax
 804967d:	7c 8c                	jl     804960b <server+0x644>
 804967f:	8b 45 e0             	mov    -0x20(%ebp),%eax
 8049682:	89 45 d8             	mov    %eax,-0x28(%ebp)
 8049685:	e9 f3 fa ff ff       	jmp    804917d <server+0x1b6>
 804968a:	e9 ee fa ff ff       	jmp    804917d <server+0x1b6>
 804968f:	81 c4 fc 00 00 00    	add    $0xfc,%esp
 8049695:	5b                   	pop    %ebx
 8049696:	5e                   	pop    %esi
 8049697:	5f                   	pop    %edi
 8049698:	5d                   	pop    %ebp
 8049699:	c3                   	ret    

0804969a <launcher>:
 804969a:	55                   	push   %ebp
 804969b:	89 e5                	mov    %esp,%ebp
 804969d:	83 ec 38             	sub    $0x38,%esp
 80496a0:	8b 45 08             	mov    0x8(%ebp),%eax
 80496a3:	a3 4c ae 04 08       	mov    %eax,0x804ae4c
 80496a8:	8b 45 0c             	mov    0xc(%ebp),%eax
 80496ab:	a3 50 ae 04 08       	mov    %eax,0x804ae50
 80496b0:	c7 44 24 14 00 00 00 	movl   $0x0,0x14(%esp)
 80496b7:	00 
 80496b8:	c7 44 24 10 00 00 00 	movl   $0x0,0x10(%esp)
 80496bf:	00 
 80496c0:	c7 44 24 0c 22 00 00 	movl   $0x22,0xc(%esp)
 80496c7:	00 
 80496c8:	c7 44 24 08 07 00 00 	movl   $0x7,0x8(%esp)
 80496cf:	00 
 80496d0:	c7 44 24 04 00 00 10 	movl   $0x100000,0x4(%esp)
 80496d7:	00 
 80496d8:	c7 04 24 00 5c 38 55 	movl   $0x55385c00,(%esp)
 80496df:	e8 ac f0 ff ff       	call   8048790 <mmap@plt>
 80496e4:	89 45 f4             	mov    %eax,-0xc(%ebp)
 80496e7:	83 7d f4 ff          	cmpl   $0xffffffff,-0xc(%ebp)
 80496eb:	75 31                	jne    804971e <launcher+0x84>
 80496ed:	a1 40 ae 04 08       	mov    0x804ae40,%eax
 80496f2:	89 44 24 0c          	mov    %eax,0xc(%esp)
 80496f6:	c7 44 24 08 23 00 00 	movl   $0x23,0x8(%esp)
 80496fd:	00 
 80496fe:	c7 44 24 04 01 00 00 	movl   $0x1,0x4(%esp)
 8049705:	00 
 8049706:	c7 04 24 8c 9a 04 08 	movl   $0x8049a8c,(%esp)
 804970d:	e8 de f1 ff ff       	call   80488f0 <fwrite@plt>
 8049712:	c7 04 24 01 00 00 00 	movl   $0x1,(%esp)
 8049719:	e8 52 f2 ff ff       	call   8048970 <exit@plt>
 804971e:	8b 45 f4             	mov    -0xc(%ebp),%eax
 8049721:	05 f8 ff 0f 00       	add    $0xffff8,%eax
 8049726:	a3 08 2d 05 08       	mov    %eax,0x8052d08
 804972b:	8b 15 08 2d 05 08    	mov    0x8052d08,%edx
 8049731:	89 e0                	mov    %esp,%eax
 8049733:	89 d4                	mov    %edx,%esp
 8049735:	89 c2                	mov    %eax,%edx
 8049737:	89 15 54 ae 04 08    	mov    %edx,0x804ae54
 804973d:	e8 85 f8 ff ff       	call   8048fc7 <server>
 8049742:	a1 54 ae 04 08       	mov    0x804ae54,%eax
 8049747:	89 c4                	mov    %eax,%esp
 8049749:	c7 44 24 04 00 00 10 	movl   $0x100000,0x4(%esp)
 8049750:	00 
 8049751:	8b 45 f4             	mov    -0xc(%ebp),%eax
 8049754:	89 04 24             	mov    %eax,(%esp)
 8049757:	e8 04 f2 ff ff       	call   8048960 <munmap@plt>
 804975c:	c9                   	leave  
 804975d:	c3                   	ret    

0804975e <main>:
 804975e:	55                   	push   %ebp
 804975f:	89 e5                	mov    %esp,%ebp
 8049761:	53                   	push   %ebx
 8049762:	83 e4 f0             	and    $0xfffffff0,%esp
 8049765:	83 ec 30             	sub    $0x30,%esp
 8049768:	c7 44 24 28 00 00 00 	movl   $0x0,0x28(%esp)
 804976f:	00 
 8049770:	c7 44 24 24 00 00 00 	movl   $0x0,0x24(%esp)
 8049777:	00 
 8049778:	c7 44 24 20 01 00 00 	movl   $0x1,0x20(%esp)
 804977f:	00 
 8049780:	a1 34 ae 04 08       	mov    0x804ae34,%eax
 8049785:	89 04 24             	mov    %eax,(%esp)
 8049788:	e8 43 f1 ff ff       	call   80488d0 <srandom@plt>
 804978d:	e8 0e f0 ff ff       	call   80487a0 <random@plt>
 8049792:	25 f8 0f 00 00       	and    $0xff8,%eax
 8049797:	89 44 24 28          	mov    %eax,0x28(%esp)
 804979b:	8b 44 24 20          	mov    0x20(%esp),%eax
 804979f:	c7 44 24 04 04 00 00 	movl   $0x4,0x4(%esp)
 80497a6:	00 
 80497a7:	89 04 24             	mov    %eax,(%esp)
 80497aa:	e8 11 f0 ff ff       	call   80487c0 <calloc@plt>
 80497af:	89 44 24 1c          	mov    %eax,0x1c(%esp)
 80497b3:	c7 44 24 2c 00 00 00 	movl   $0x0,0x2c(%esp)
 80497ba:	00 
 80497bb:	eb 21                	jmp    80497de <main+0x80>
 80497bd:	8b 44 24 2c          	mov    0x2c(%esp),%eax
 80497c1:	8d 14 85 00 00 00 00 	lea    0x0(,%eax,4),%edx
 80497c8:	8b 44 24 1c          	mov    0x1c(%esp),%eax
 80497cc:	8d 1c 02             	lea    (%edx,%eax,1),%ebx
 80497cf:	e8 cc ef ff ff       	call   80487a0 <random@plt>
 80497d4:	83 e0 38             	and    $0x38,%eax
 80497d7:	89 03                	mov    %eax,(%ebx)
 80497d9:	83 44 24 2c 01       	addl   $0x1,0x2c(%esp)
 80497de:	8b 44 24 20          	mov    0x20(%esp),%eax
 80497e2:	83 e8 02             	sub    $0x2,%eax
 80497e5:	3b 44 24 2c          	cmp    0x2c(%esp),%eax
 80497e9:	7f d2                	jg     80497bd <main+0x5f>
 80497eb:	83 7c 24 20 01       	cmpl   $0x1,0x20(%esp)
 80497f0:	7e 1c                	jle    804980e <main+0xb0>
 80497f2:	8b 44 24 20          	mov    0x20(%esp),%eax
 80497f6:	05 fe ff ff 3f       	add    $0x3ffffffe,%eax
 80497fb:	8d 14 85 00 00 00 00 	lea    0x0(,%eax,4),%edx
 8049802:	8b 44 24 1c          	mov    0x1c(%esp),%eax
 8049806:	01 d0                	add    %edx,%eax
 8049808:	c7 00 38 00 00 00    	movl   $0x38,(%eax)
 804980e:	8b 44 24 20          	mov    0x20(%esp),%eax
 8049812:	05 ff ff ff 3f       	add    $0x3fffffff,%eax
 8049817:	8d 14 85 00 00 00 00 	lea    0x0(,%eax,4),%edx
 804981e:	8b 44 24 1c          	mov    0x1c(%esp),%eax
 8049822:	01 d0                	add    %edx,%eax
 8049824:	c7 00 00 00 00 00    	movl   $0x0,(%eax)
 804982a:	c7 44 24 2c 00 00 00 	movl   $0x0,0x2c(%esp)
 8049831:	00 
 8049832:	eb 2e                	jmp    8049862 <main+0x104>
 8049834:	8b 44 24 2c          	mov    0x2c(%esp),%eax
 8049838:	8d 14 85 00 00 00 00 	lea    0x0(,%eax,4),%edx
 804983f:	8b 44 24 1c          	mov    0x1c(%esp),%eax
 8049843:	01 d0                	add    %edx,%eax
 8049845:	8b 10                	mov    (%eax),%edx
 8049847:	8b 44 24 28          	mov    0x28(%esp),%eax
 804984b:	01 d0                	add    %edx,%eax
 804984d:	89 44 24 04          	mov    %eax,0x4(%esp)
 8049851:	8b 44 24 24          	mov    0x24(%esp),%eax
 8049855:	89 04 24             	mov    %eax,(%esp)
 8049858:	e8 3d fe ff ff       	call   804969a <launcher>
 804985d:	83 44 24 2c 01       	addl   $0x1,0x2c(%esp)
 8049862:	8b 44 24 2c          	mov    0x2c(%esp),%eax
 8049866:	3b 44 24 20          	cmp    0x20(%esp),%eax
 804986a:	7c c8                	jl     8049834 <main+0xd6>
 804986c:	b8 00 00 00 00       	mov    $0x0,%eax
 8049871:	8b 5d fc             	mov    -0x4(%ebp),%ebx
 8049874:	c9                   	leave  
 8049875:	c3                   	ret    
 8049876:	90                   	nop
 8049877:	90                   	nop
 8049878:	90                   	nop
 8049879:	90                   	nop
 804987a:	90                   	nop
 804987b:	90                   	nop
 804987c:	90                   	nop
 804987d:	90                   	nop
 804987e:	90                   	nop
 804987f:	90                   	nop

08049880 <__libc_csu_fini>:
 8049880:	55                   	push   %ebp
 8049881:	89 e5                	mov    %esp,%ebp
 8049883:	5d                   	pop    %ebp
 8049884:	c3                   	ret    
 8049885:	66 66 2e 0f 1f 84 00 	data32 nopw %cs:0x0(%eax,%eax,1)
 804988c:	00 00 00 00 

08049890 <__libc_csu_init>:
 8049890:	55                   	push   %ebp
 8049891:	89 e5                	mov    %esp,%ebp
 8049893:	57                   	push   %edi
 8049894:	56                   	push   %esi
 8049895:	53                   	push   %ebx
 8049896:	e8 4f 00 00 00       	call   80498ea <__i686.get_pc_thunk.bx>
 804989b:	81 c3 01 15 00 00    	add    $0x1501,%ebx
 80498a1:	83 ec 1c             	sub    $0x1c,%esp
 80498a4:	e8 87 ee ff ff       	call   8048730 <_init>
 80498a9:	8d bb 20 ff ff ff    	lea    -0xe0(%ebx),%edi
 80498af:	8d 83 20 ff ff ff    	lea    -0xe0(%ebx),%eax
 80498b5:	29 c7                	sub    %eax,%edi
 80498b7:	c1 ff 02             	sar    $0x2,%edi
 80498ba:	85 ff                	test   %edi,%edi
 80498bc:	74 24                	je     80498e2 <__libc_csu_init+0x52>
 80498be:	31 f6                	xor    %esi,%esi
 80498c0:	8b 45 10             	mov    0x10(%ebp),%eax
 80498c3:	89 44 24 08          	mov    %eax,0x8(%esp)
 80498c7:	8b 45 0c             	mov    0xc(%ebp),%eax
 80498ca:	89 44 24 04          	mov    %eax,0x4(%esp)
 80498ce:	8b 45 08             	mov    0x8(%ebp),%eax
 80498d1:	89 04 24             	mov    %eax,(%esp)
 80498d4:	ff 94 b3 20 ff ff ff 	call   *-0xe0(%ebx,%esi,4)
 80498db:	83 c6 01             	add    $0x1,%esi
 80498de:	39 fe                	cmp    %edi,%esi
 80498e0:	72 de                	jb     80498c0 <__libc_csu_init+0x30>
 80498e2:	83 c4 1c             	add    $0x1c,%esp
 80498e5:	5b                   	pop    %ebx
 80498e6:	5e                   	pop    %esi
 80498e7:	5f                   	pop    %edi
 80498e8:	5d                   	pop    %ebp
 80498e9:	c3                   	ret    

080498ea <__i686.get_pc_thunk.bx>:
 80498ea:	8b 1c 24             	mov    (%esp),%ebx
 80498ed:	c3                   	ret    
 80498ee:	90                   	nop
 80498ef:	90                   	nop

080498f0 <__do_global_ctors_aux>:
 80498f0:	55                   	push   %ebp
 80498f1:	89 e5                	mov    %esp,%ebp
 80498f3:	53                   	push   %ebx
 80498f4:	bb bc ac 04 08       	mov    $0x804acbc,%ebx
 80498f9:	83 ec 04             	sub    $0x4,%esp
 80498fc:	a1 bc ac 04 08       	mov    0x804acbc,%eax
 8049901:	83 f8 ff             	cmp    $0xffffffff,%eax
 8049904:	74 0e                	je     8049914 <__do_global_ctors_aux+0x24>
 8049906:	66 90                	xchg   %ax,%ax
 8049908:	83 eb 04             	sub    $0x4,%ebx
 804990b:	ff d0                	call   *%eax
 804990d:	8b 03                	mov    (%ebx),%eax
 804990f:	83 f8 ff             	cmp    $0xffffffff,%eax
 8049912:	75 f4                	jne    8049908 <__do_global_ctors_aux+0x18>
 8049914:	83 c4 04             	add    $0x4,%esp
 8049917:	5b                   	pop    %ebx
 8049918:	5d                   	pop    %ebp
 8049919:	c3                   	ret    
 804991a:	90                   	nop
 804991b:	90                   	nop

Disassembly of section .fini:

0804991c <_fini>:
 804991c:	55                   	push   %ebp
 804991d:	89 e5                	mov    %esp,%ebp
 804991f:	53                   	push   %ebx
 8049920:	83 ec 04             	sub    $0x4,%esp
 8049923:	e8 00 00 00 00       	call   8049928 <_fini+0xc>
 8049928:	5b                   	pop    %ebx
 8049929:	81 c3 74 14 00 00    	add    $0x1474,%ebx
 804992f:	e8 ec f0 ff ff       	call   8048a20 <__do_global_dtors_aux>
 8049934:	59                   	pop    %ecx
 8049935:	5b                   	pop    %ebx
 8049936:	c9                   	leave  
 8049937:	c3                   	ret    
