
server2:     file format elf32-i386


Disassembly of section .init:

080486d4 <_init>:
 80486d4:	55                   	push   %ebp
 80486d5:	89 e5                	mov    %esp,%ebp
 80486d7:	53                   	push   %ebx
 80486d8:	83 ec 04             	sub    $0x4,%esp
 80486db:	e8 00 00 00 00       	call   80486e0 <_init+0xc>
 80486e0:	5b                   	pop    %ebx
 80486e1:	81 c3 bc 26 00 00    	add    $0x26bc,%ebx
 80486e7:	8b 93 fc ff ff ff    	mov    -0x4(%ebx),%edx
 80486ed:	85 d2                	test   %edx,%edx
 80486ef:	74 05                	je     80486f6 <_init+0x22>
 80486f1:	e8 5e 00 00 00       	call   8048754 <__gmon_start__@plt>
 80486f6:	e8 15 03 00 00       	call   8048a10 <frame_dummy>
 80486fb:	e8 f0 11 00 00       	call   80498f0 <__do_global_ctors_aux>
 8048700:	58                   	pop    %eax
 8048701:	5b                   	pop    %ebx
 8048702:	c9                   	leave  
 8048703:	c3                   	ret    

Disassembly of section .plt:

08048704 <__errno_location@plt-0x10>:
 8048704:	ff 35 a0 ad 04 08    	pushl  0x804ada0
 804870a:	ff 25 a4 ad 04 08    	jmp    *0x804ada4
 8048710:	00 00                	add    %al,(%eax)
	...

08048714 <__errno_location@plt>:
 8048714:	ff 25 a8 ad 04 08    	jmp    *0x804ada8
 804871a:	68 00 00 00 00       	push   $0x0
 804871f:	e9 e0 ff ff ff       	jmp    8048704 <_init+0x30>

08048724 <sprintf@plt>:
 8048724:	ff 25 ac ad 04 08    	jmp    *0x804adac
 804872a:	68 08 00 00 00       	push   $0x8
 804872f:	e9 d0 ff ff ff       	jmp    8048704 <_init+0x30>

08048734 <mmap@plt>:
 8048734:	ff 25 b0 ad 04 08    	jmp    *0x804adb0
 804873a:	68 10 00 00 00       	push   $0x10
 804873f:	e9 c0 ff ff ff       	jmp    8048704 <_init+0x30>

08048744 <random@plt>:
 8048744:	ff 25 b4 ad 04 08    	jmp    *0x804adb4
 804874a:	68 18 00 00 00       	push   $0x18
 804874f:	e9 b0 ff ff ff       	jmp    8048704 <_init+0x30>

08048754 <__gmon_start__@plt>:
 8048754:	ff 25 b8 ad 04 08    	jmp    *0x804adb8
 804875a:	68 20 00 00 00       	push   $0x20
 804875f:	e9 a0 ff ff ff       	jmp    8048704 <_init+0x30>

08048764 <calloc@plt>:
 8048764:	ff 25 bc ad 04 08    	jmp    *0x804adbc
 804876a:	68 28 00 00 00       	push   $0x28
 804876f:	e9 90 ff ff ff       	jmp    8048704 <_init+0x30>

08048774 <write@plt>:
 8048774:	ff 25 c0 ad 04 08    	jmp    *0x804adc0
 804877a:	68 30 00 00 00       	push   $0x30
 804877f:	e9 80 ff ff ff       	jmp    8048704 <_init+0x30>

08048784 <listen@plt>:
 8048784:	ff 25 c4 ad 04 08    	jmp    *0x804adc4
 804878a:	68 38 00 00 00       	push   $0x38
 804878f:	e9 70 ff ff ff       	jmp    8048704 <_init+0x30>

08048794 <__libc_start_main@plt>:
 8048794:	ff 25 c8 ad 04 08    	jmp    *0x804adc8
 804879a:	68 40 00 00 00       	push   $0x40
 804879f:	e9 60 ff ff ff       	jmp    8048704 <_init+0x30>

080487a4 <htons@plt>:
 80487a4:	ff 25 cc ad 04 08    	jmp    *0x804adcc
 80487aa:	68 48 00 00 00       	push   $0x48
 80487af:	e9 50 ff ff ff       	jmp    8048704 <_init+0x30>

080487b4 <read@plt>:
 80487b4:	ff 25 d0 ad 04 08    	jmp    *0x804add0
 80487ba:	68 50 00 00 00       	push   $0x50
 80487bf:	e9 40 ff ff ff       	jmp    8048704 <_init+0x30>

080487c4 <gettimeofday@plt>:
 80487c4:	ff 25 d4 ad 04 08    	jmp    *0x804add4
 80487ca:	68 58 00 00 00       	push   $0x58
 80487cf:	e9 30 ff ff ff       	jmp    8048704 <_init+0x30>

080487d4 <accept@plt>:
 80487d4:	ff 25 d8 ad 04 08    	jmp    *0x804add8
 80487da:	68 60 00 00 00       	push   $0x60
 80487df:	e9 20 ff ff ff       	jmp    8048704 <_init+0x30>

080487e4 <socket@plt>:
 80487e4:	ff 25 dc ad 04 08    	jmp    *0x804addc
 80487ea:	68 68 00 00 00       	push   $0x68
 80487ef:	e9 10 ff ff ff       	jmp    8048704 <_init+0x30>

080487f4 <strlen@plt>:
 80487f4:	ff 25 e0 ad 04 08    	jmp    *0x804ade0
 80487fa:	68 70 00 00 00       	push   $0x70
 80487ff:	e9 00 ff ff ff       	jmp    8048704 <_init+0x30>

08048804 <strcpy@plt>:
 8048804:	ff 25 e4 ad 04 08    	jmp    *0x804ade4
 804880a:	68 78 00 00 00       	push   $0x78
 804880f:	e9 f0 fe ff ff       	jmp    8048704 <_init+0x30>

08048814 <printf@plt>:
 8048814:	ff 25 e8 ad 04 08    	jmp    *0x804ade8
 804881a:	68 80 00 00 00       	push   $0x80
 804881f:	e9 e0 fe ff ff       	jmp    8048704 <_init+0x30>

08048824 <bind@plt>:
 8048824:	ff 25 ec ad 04 08    	jmp    *0x804adec
 804882a:	68 88 00 00 00       	push   $0x88
 804882f:	e9 d0 fe ff ff       	jmp    8048704 <_init+0x30>

08048834 <atol@plt>:
 8048834:	ff 25 f0 ad 04 08    	jmp    *0x804adf0
 804883a:	68 90 00 00 00       	push   $0x90
 804883f:	e9 c0 fe ff ff       	jmp    8048704 <_init+0x30>

08048844 <select@plt>:
 8048844:	ff 25 f4 ad 04 08    	jmp    *0x804adf4
 804884a:	68 98 00 00 00       	push   $0x98
 804884f:	e9 b0 fe ff ff       	jmp    8048704 <_init+0x30>

08048854 <srandom@plt>:
 8048854:	ff 25 f8 ad 04 08    	jmp    *0x804adf8
 804885a:	68 a0 00 00 00       	push   $0xa0
 804885f:	e9 a0 fe ff ff       	jmp    8048704 <_init+0x30>

08048864 <close@plt>:
 8048864:	ff 25 fc ad 04 08    	jmp    *0x804adfc
 804886a:	68 a8 00 00 00       	push   $0xa8
 804886f:	e9 90 fe ff ff       	jmp    8048704 <_init+0x30>

08048874 <fwrite@plt>:
 8048874:	ff 25 00 ae 04 08    	jmp    *0x804ae00
 804887a:	68 b0 00 00 00       	push   $0xb0
 804887f:	e9 80 fe ff ff       	jmp    8048704 <_init+0x30>

08048884 <strncat@plt>:
 8048884:	ff 25 04 ae 04 08    	jmp    *0x804ae04
 804888a:	68 b8 00 00 00       	push   $0xb8
 804888f:	e9 70 fe ff ff       	jmp    8048704 <_init+0x30>

08048894 <strtok@plt>:
 8048894:	ff 25 08 ae 04 08    	jmp    *0x804ae08
 804889a:	68 c0 00 00 00       	push   $0xc0
 804889f:	e9 60 fe ff ff       	jmp    8048704 <_init+0x30>

080488a4 <puts@plt>:
 80488a4:	ff 25 0c ae 04 08    	jmp    *0x804ae0c
 80488aa:	68 c8 00 00 00       	push   $0xc8
 80488af:	e9 50 fe ff ff       	jmp    8048704 <_init+0x30>

080488b4 <setsockopt@plt>:
 80488b4:	ff 25 10 ae 04 08    	jmp    *0x804ae10
 80488ba:	68 d0 00 00 00       	push   $0xd0
 80488bf:	e9 40 fe ff ff       	jmp    8048704 <_init+0x30>

080488c4 <bzero@plt>:
 80488c4:	ff 25 14 ae 04 08    	jmp    *0x804ae14
 80488ca:	68 d8 00 00 00       	push   $0xd8
 80488cf:	e9 30 fe ff ff       	jmp    8048704 <_init+0x30>

080488d4 <htonl@plt>:
 80488d4:	ff 25 18 ae 04 08    	jmp    *0x804ae18
 80488da:	68 e0 00 00 00       	push   $0xe0
 80488df:	e9 20 fe ff ff       	jmp    8048704 <_init+0x30>

080488e4 <munmap@plt>:
 80488e4:	ff 25 1c ae 04 08    	jmp    *0x804ae1c
 80488ea:	68 e8 00 00 00       	push   $0xe8
 80488ef:	e9 10 fe ff ff       	jmp    8048704 <_init+0x30>

080488f4 <exit@plt>:
 80488f4:	ff 25 20 ae 04 08    	jmp    *0x804ae20
 80488fa:	68 f0 00 00 00       	push   $0xf0
 80488ff:	e9 00 fe ff ff       	jmp    8048704 <_init+0x30>

Disassembly of section .text:

08048910 <_start>:
 8048910:	31 ed                	xor    %ebp,%ebp
 8048912:	5e                   	pop    %esi
 8048913:	89 e1                	mov    %esp,%ecx
 8048915:	83 e4 f0             	and    $0xfffffff0,%esp
 8048918:	50                   	push   %eax
 8048919:	54                   	push   %esp
 804891a:	52                   	push   %edx
 804891b:	68 80 98 04 08       	push   $0x8049880
 8048920:	68 90 98 04 08       	push   $0x8049890
 8048925:	51                   	push   %ecx
 8048926:	56                   	push   %esi
 8048927:	68 61 97 04 08       	push   $0x8049761
 804892c:	e8 63 fe ff ff       	call   8048794 <__libc_start_main@plt>
 8048931:	f4                   	hlt    
 8048932:	90                   	nop
 8048933:	90                   	nop
 8048934:	90                   	nop
 8048935:	90                   	nop
 8048936:	90                   	nop
 8048937:	90                   	nop
 8048938:	90                   	nop
 8048939:	90                   	nop
 804893a:	90                   	nop
 804893b:	90                   	nop
 804893c:	90                   	nop
 804893d:	90                   	nop
 804893e:	90                   	nop
 804893f:	90                   	nop

08048940 <deregister_tm_clones>:
 8048940:	b8 47 ae 04 08       	mov    $0x804ae47,%eax
 8048945:	2d 44 ae 04 08       	sub    $0x804ae44,%eax
 804894a:	83 f8 06             	cmp    $0x6,%eax
 804894d:	77 01                	ja     8048950 <deregister_tm_clones+0x10>
 804894f:	c3                   	ret    
 8048950:	b8 00 00 00 00       	mov    $0x0,%eax
 8048955:	85 c0                	test   %eax,%eax
 8048957:	74 f6                	je     804894f <deregister_tm_clones+0xf>
 8048959:	55                   	push   %ebp
 804895a:	89 e5                	mov    %esp,%ebp
 804895c:	83 ec 18             	sub    $0x18,%esp
 804895f:	c7 04 24 44 ae 04 08 	movl   $0x804ae44,(%esp)
 8048966:	ff d0                	call   *%eax
 8048968:	c9                   	leave  
 8048969:	c3                   	ret    
 804896a:	8d b6 00 00 00 00    	lea    0x0(%esi),%esi

08048970 <register_tm_clones>:
 8048970:	b8 44 ae 04 08       	mov    $0x804ae44,%eax
 8048975:	2d 44 ae 04 08       	sub    $0x804ae44,%eax
 804897a:	c1 f8 02             	sar    $0x2,%eax
 804897d:	89 c2                	mov    %eax,%edx
 804897f:	c1 ea 1f             	shr    $0x1f,%edx
 8048982:	01 d0                	add    %edx,%eax
 8048984:	d1 f8                	sar    %eax
 8048986:	75 01                	jne    8048989 <register_tm_clones+0x19>
 8048988:	c3                   	ret    
 8048989:	ba 00 00 00 00       	mov    $0x0,%edx
 804898e:	85 d2                	test   %edx,%edx
 8048990:	74 f6                	je     8048988 <register_tm_clones+0x18>
 8048992:	55                   	push   %ebp
 8048993:	89 e5                	mov    %esp,%ebp
 8048995:	83 ec 18             	sub    $0x18,%esp
 8048998:	89 44 24 04          	mov    %eax,0x4(%esp)
 804899c:	c7 04 24 44 ae 04 08 	movl   $0x804ae44,(%esp)
 80489a3:	ff d2                	call   *%edx
 80489a5:	c9                   	leave  
 80489a6:	c3                   	ret    
 80489a7:	89 f6                	mov    %esi,%esi
 80489a9:	8d bc 27 00 00 00 00 	lea    0x0(%edi,%eiz,1),%edi

080489b0 <__do_global_dtors_aux>:
 80489b0:	80 3d 64 ae 04 08 00 	cmpb   $0x0,0x804ae64
 80489b7:	75 50                	jne    8048a09 <__do_global_dtors_aux+0x59>
 80489b9:	55                   	push   %ebp
 80489ba:	89 e5                	mov    %esp,%ebp
 80489bc:	53                   	push   %ebx
 80489bd:	bb c8 ac 04 08       	mov    $0x804acc8,%ebx
 80489c2:	83 ec 04             	sub    $0x4,%esp
 80489c5:	a1 68 ae 04 08       	mov    0x804ae68,%eax
 80489ca:	81 eb c4 ac 04 08    	sub    $0x804acc4,%ebx
 80489d0:	c1 fb 02             	sar    $0x2,%ebx
 80489d3:	83 eb 01             	sub    $0x1,%ebx
 80489d6:	39 d8                	cmp    %ebx,%eax
 80489d8:	73 1e                	jae    80489f8 <__do_global_dtors_aux+0x48>
 80489da:	8d b6 00 00 00 00    	lea    0x0(%esi),%esi
 80489e0:	83 c0 01             	add    $0x1,%eax
 80489e3:	a3 68 ae 04 08       	mov    %eax,0x804ae68
 80489e8:	ff 14 85 c4 ac 04 08 	call   *0x804acc4(,%eax,4)
 80489ef:	a1 68 ae 04 08       	mov    0x804ae68,%eax
 80489f4:	39 d8                	cmp    %ebx,%eax
 80489f6:	72 e8                	jb     80489e0 <__do_global_dtors_aux+0x30>
 80489f8:	e8 43 ff ff ff       	call   8048940 <deregister_tm_clones>
 80489fd:	c6 05 64 ae 04 08 01 	movb   $0x1,0x804ae64
 8048a04:	83 c4 04             	add    $0x4,%esp
 8048a07:	5b                   	pop    %ebx
 8048a08:	5d                   	pop    %ebp
 8048a09:	c3                   	ret    
 8048a0a:	8d b6 00 00 00 00    	lea    0x0(%esi),%esi

08048a10 <frame_dummy>:
 8048a10:	a1 cc ac 04 08       	mov    0x804accc,%eax
 8048a15:	85 c0                	test   %eax,%eax
 8048a17:	74 1f                	je     8048a38 <frame_dummy+0x28>
 8048a19:	b8 00 00 00 00       	mov    $0x0,%eax
 8048a1e:	85 c0                	test   %eax,%eax
 8048a20:	74 16                	je     8048a38 <frame_dummy+0x28>
 8048a22:	55                   	push   %ebp
 8048a23:	89 e5                	mov    %esp,%ebp
 8048a25:	83 ec 18             	sub    $0x18,%esp
 8048a28:	c7 04 24 cc ac 04 08 	movl   $0x804accc,(%esp)
 8048a2f:	ff d0                	call   *%eax
 8048a31:	c9                   	leave  
 8048a32:	e9 39 ff ff ff       	jmp    8048970 <register_tm_clones>
 8048a37:	90                   	nop
 8048a38:	e9 33 ff ff ff       	jmp    8048970 <register_tm_clones>
 8048a3d:	90                   	nop
 8048a3e:	90                   	nop
 8048a3f:	90                   	nop

08048a40 <handler0>:
 8048a40:	55                   	push   %ebp
 8048a41:	89 e5                	mov    %esp,%ebp
 8048a43:	81 ec 98 01 00 00    	sub    $0x198,%esp
 8048a49:	c7 45 f4 00 00 00 00 	movl   $0x0,-0xc(%ebp)
 8048a50:	a1 2c ae 04 08       	mov    0x804ae2c,%eax
 8048a55:	89 45 f0             	mov    %eax,-0x10(%ebp)
 8048a58:	eb 35                	jmp    8048a8f <handler0+0x4f>
 8048a5a:	8b 55 f4             	mov    -0xc(%ebp),%edx
 8048a5d:	8b 45 08             	mov    0x8(%ebp),%eax
 8048a60:	01 d0                	add    %edx,%eax
 8048a62:	0f b6 00             	movzbl (%eax),%eax
 8048a65:	3c 49                	cmp    $0x49,%al
 8048a67:	75 0d                	jne    8048a76 <handler0+0x36>
 8048a69:	8b 55 f4             	mov    -0xc(%ebp),%edx
 8048a6c:	8b 45 08             	mov    0x8(%ebp),%eax
 8048a6f:	01 d0                	add    %edx,%eax
 8048a71:	c6 00 31             	movb   $0x31,(%eax)
 8048a74:	eb 15                	jmp    8048a8b <handler0+0x4b>
 8048a76:	8b 55 f4             	mov    -0xc(%ebp),%edx
 8048a79:	8b 45 08             	mov    0x8(%ebp),%eax
 8048a7c:	01 c2                	add    %eax,%edx
 8048a7e:	8b 4d f4             	mov    -0xc(%ebp),%ecx
 8048a81:	8b 45 08             	mov    0x8(%ebp),%eax
 8048a84:	01 c8                	add    %ecx,%eax
 8048a86:	0f b6 00             	movzbl (%eax),%eax
 8048a89:	88 02                	mov    %al,(%edx)
 8048a8b:	83 45 f4 01          	addl   $0x1,-0xc(%ebp)
 8048a8f:	8b 55 f4             	mov    -0xc(%ebp),%edx
 8048a92:	8b 45 08             	mov    0x8(%ebp),%eax
 8048a95:	01 d0                	add    %edx,%eax
 8048a97:	0f b6 00             	movzbl (%eax),%eax
 8048a9a:	84 c0                	test   %al,%al
 8048a9c:	75 bc                	jne    8048a5a <handler0+0x1a>
 8048a9e:	8b 45 08             	mov    0x8(%ebp),%eax
 8048aa1:	89 44 24 04          	mov    %eax,0x4(%esp)
 8048aa5:	8d 85 dc fe ff ff    	lea    -0x124(%ebp),%eax
 8048aab:	89 04 24             	mov    %eax,(%esp)
 8048aae:	e8 51 fd ff ff       	call   8048804 <strcpy@plt>
 8048ab3:	8d 85 dc fe ff ff    	lea    -0x124(%ebp),%eax
 8048ab9:	89 04 24             	mov    %eax,(%esp)
 8048abc:	e8 33 fd ff ff       	call   80487f4 <strlen@plt>
 8048ac1:	89 44 24 08          	mov    %eax,0x8(%esp)
 8048ac5:	8d 85 dc fe ff ff    	lea    -0x124(%ebp),%eax
 8048acb:	89 44 24 04          	mov    %eax,0x4(%esp)
 8048acf:	8b 45 0c             	mov    0xc(%ebp),%eax
 8048ad2:	89 04 24             	mov    %eax,(%esp)
 8048ad5:	e8 9a fc ff ff       	call   8048774 <write@plt>
 8048ada:	a1 2c ae 04 08       	mov    0x804ae2c,%eax
 8048adf:	39 45 f0             	cmp    %eax,-0x10(%ebp)
 8048ae2:	74 0c                	je     8048af0 <handler0+0xb0>
 8048ae4:	c7 04 24 ff ff ff ff 	movl   $0xffffffff,(%esp)
 8048aeb:	e8 04 fe ff ff       	call   80488f4 <exit@plt>
 8048af0:	b8 00 00 00 00       	mov    $0x0,%eax
 8048af5:	c9                   	leave  
 8048af6:	c3                   	ret    

08048af7 <handler1>:
 8048af7:	55                   	push   %ebp
 8048af8:	89 e5                	mov    %esp,%ebp
 8048afa:	81 ec 78 04 00 00    	sub    $0x478,%esp
 8048b00:	a1 2c ae 04 08       	mov    0x804ae2c,%eax
 8048b05:	89 45 f0             	mov    %eax,-0x10(%ebp)
 8048b08:	c7 45 f4 00 00 00 00 	movl   $0x0,-0xc(%ebp)
 8048b0f:	eb 4a                	jmp    8048b5b <handler1+0x64>
 8048b11:	8b 55 f4             	mov    -0xc(%ebp),%edx
 8048b14:	8b 45 08             	mov    0x8(%ebp),%eax
 8048b17:	01 d0                	add    %edx,%eax
 8048b19:	0f b6 00             	movzbl (%eax),%eax
 8048b1c:	3c 65                	cmp    $0x65,%al
 8048b1e:	74 0f                	je     8048b2f <handler1+0x38>
 8048b20:	8b 55 f4             	mov    -0xc(%ebp),%edx
 8048b23:	8b 45 08             	mov    0x8(%ebp),%eax
 8048b26:	01 d0                	add    %edx,%eax
 8048b28:	0f b6 00             	movzbl (%eax),%eax
 8048b2b:	3c 45                	cmp    $0x45,%al
 8048b2d:	75 10                	jne    8048b3f <handler1+0x48>
 8048b2f:	8d 95 08 fc ff ff    	lea    -0x3f8(%ebp),%edx
 8048b35:	8b 45 f4             	mov    -0xc(%ebp),%eax
 8048b38:	01 d0                	add    %edx,%eax
 8048b3a:	c6 00 33             	movb   $0x33,(%eax)
 8048b3d:	eb 18                	jmp    8048b57 <handler1+0x60>
 8048b3f:	8b 55 f4             	mov    -0xc(%ebp),%edx
 8048b42:	8b 45 08             	mov    0x8(%ebp),%eax
 8048b45:	01 d0                	add    %edx,%eax
 8048b47:	0f b6 00             	movzbl (%eax),%eax
 8048b4a:	8d 8d 08 fc ff ff    	lea    -0x3f8(%ebp),%ecx
 8048b50:	8b 55 f4             	mov    -0xc(%ebp),%edx
 8048b53:	01 ca                	add    %ecx,%edx
 8048b55:	88 02                	mov    %al,(%edx)
 8048b57:	83 45 f4 01          	addl   $0x1,-0xc(%ebp)
 8048b5b:	8b 55 f4             	mov    -0xc(%ebp),%edx
 8048b5e:	8b 45 08             	mov    0x8(%ebp),%eax
 8048b61:	01 d0                	add    %edx,%eax
 8048b63:	0f b6 00             	movzbl (%eax),%eax
 8048b66:	84 c0                	test   %al,%al
 8048b68:	75 a7                	jne    8048b11 <handler1+0x1a>
 8048b6a:	8d 85 08 fc ff ff    	lea    -0x3f8(%ebp),%eax
 8048b70:	89 04 24             	mov    %eax,(%esp)
 8048b73:	e8 7c fc ff ff       	call   80487f4 <strlen@plt>
 8048b78:	89 44 24 08          	mov    %eax,0x8(%esp)
 8048b7c:	8d 85 08 fc ff ff    	lea    -0x3f8(%ebp),%eax
 8048b82:	89 44 24 04          	mov    %eax,0x4(%esp)
 8048b86:	8b 45 0c             	mov    0xc(%ebp),%eax
 8048b89:	89 04 24             	mov    %eax,(%esp)
 8048b8c:	e8 e3 fb ff ff       	call   8048774 <write@plt>
 8048b91:	89 45 f4             	mov    %eax,-0xc(%ebp)
 8048b94:	8d 85 08 fc ff ff    	lea    -0x3f8(%ebp),%eax
 8048b9a:	89 04 24             	mov    %eax,(%esp)
 8048b9d:	e8 52 fc ff ff       	call   80487f4 <strlen@plt>
 8048ba2:	89 44 24 08          	mov    %eax,0x8(%esp)
 8048ba6:	8b 45 f4             	mov    -0xc(%ebp),%eax
 8048ba9:	89 44 24 04          	mov    %eax,0x4(%esp)
 8048bad:	8d 85 a4 fb ff ff    	lea    -0x45c(%ebp),%eax
 8048bb3:	89 04 24             	mov    %eax,(%esp)
 8048bb6:	e8 ab 02 00 00       	call   8048e66 <check_error>
 8048bbb:	89 45 f4             	mov    %eax,-0xc(%ebp)
 8048bbe:	83 7d f4 01          	cmpl   $0x1,-0xc(%ebp)
 8048bc2:	75 16                	jne    8048bda <handler1+0xe3>
 8048bc4:	8d 85 a4 fb ff ff    	lea    -0x45c(%ebp),%eax
 8048bca:	89 44 24 04          	mov    %eax,0x4(%esp)
 8048bce:	c7 04 24 40 99 04 08 	movl   $0x8049940,(%esp)
 8048bd5:	e8 3a fc ff ff       	call   8048814 <printf@plt>
 8048bda:	a1 2c ae 04 08       	mov    0x804ae2c,%eax
 8048bdf:	39 45 f0             	cmp    %eax,-0x10(%ebp)
 8048be2:	74 0c                	je     8048bf0 <handler1+0xf9>
 8048be4:	c7 04 24 ff ff ff ff 	movl   $0xffffffff,(%esp)
 8048beb:	e8 04 fd ff ff       	call   80488f4 <exit@plt>
 8048bf0:	8b 45 f4             	mov    -0xc(%ebp),%eax
 8048bf3:	c9                   	leave  
 8048bf4:	c3                   	ret    

08048bf5 <handler2>:
 8048bf5:	55                   	push   %ebp
 8048bf6:	89 e5                	mov    %esp,%ebp
 8048bf8:	81 ec 78 04 00 00    	sub    $0x478,%esp
 8048bfe:	a1 2c ae 04 08       	mov    0x804ae2c,%eax
 8048c03:	89 45 f0             	mov    %eax,-0x10(%ebp)
 8048c06:	c7 45 f4 00 00 00 00 	movl   $0x0,-0xc(%ebp)
 8048c0d:	eb 3b                	jmp    8048c4a <handler2+0x55>
 8048c0f:	8b 55 f4             	mov    -0xc(%ebp),%edx
 8048c12:	8b 45 08             	mov    0x8(%ebp),%eax
 8048c15:	01 d0                	add    %edx,%eax
 8048c17:	0f b6 00             	movzbl (%eax),%eax
 8048c1a:	3c 41                	cmp    $0x41,%al
 8048c1c:	75 10                	jne    8048c2e <handler2+0x39>
 8048c1e:	8d 95 08 fc ff ff    	lea    -0x3f8(%ebp),%edx
 8048c24:	8b 45 f4             	mov    -0xc(%ebp),%eax
 8048c27:	01 d0                	add    %edx,%eax
 8048c29:	c6 00 34             	movb   $0x34,(%eax)
 8048c2c:	eb 18                	jmp    8048c46 <handler2+0x51>
 8048c2e:	8b 55 f4             	mov    -0xc(%ebp),%edx
 8048c31:	8b 45 08             	mov    0x8(%ebp),%eax
 8048c34:	01 d0                	add    %edx,%eax
 8048c36:	0f b6 00             	movzbl (%eax),%eax
 8048c39:	8d 8d 08 fc ff ff    	lea    -0x3f8(%ebp),%ecx
 8048c3f:	8b 55 f4             	mov    -0xc(%ebp),%edx
 8048c42:	01 ca                	add    %ecx,%edx
 8048c44:	88 02                	mov    %al,(%edx)
 8048c46:	83 45 f4 01          	addl   $0x1,-0xc(%ebp)
 8048c4a:	8b 55 f4             	mov    -0xc(%ebp),%edx
 8048c4d:	8b 45 08             	mov    0x8(%ebp),%eax
 8048c50:	01 d0                	add    %edx,%eax
 8048c52:	0f b6 00             	movzbl (%eax),%eax
 8048c55:	84 c0                	test   %al,%al
 8048c57:	75 b6                	jne    8048c0f <handler2+0x1a>
 8048c59:	8d 85 08 fc ff ff    	lea    -0x3f8(%ebp),%eax
 8048c5f:	89 04 24             	mov    %eax,(%esp)
 8048c62:	e8 8d fb ff ff       	call   80487f4 <strlen@plt>
 8048c67:	89 44 24 08          	mov    %eax,0x8(%esp)
 8048c6b:	8d 85 08 fc ff ff    	lea    -0x3f8(%ebp),%eax
 8048c71:	89 44 24 04          	mov    %eax,0x4(%esp)
 8048c75:	8b 45 0c             	mov    0xc(%ebp),%eax
 8048c78:	89 04 24             	mov    %eax,(%esp)
 8048c7b:	e8 f4 fa ff ff       	call   8048774 <write@plt>
 8048c80:	89 45 f4             	mov    %eax,-0xc(%ebp)
 8048c83:	8d 85 08 fc ff ff    	lea    -0x3f8(%ebp),%eax
 8048c89:	89 04 24             	mov    %eax,(%esp)
 8048c8c:	e8 63 fb ff ff       	call   80487f4 <strlen@plt>
 8048c91:	89 44 24 08          	mov    %eax,0x8(%esp)
 8048c95:	8b 45 f4             	mov    -0xc(%ebp),%eax
 8048c98:	89 44 24 04          	mov    %eax,0x4(%esp)
 8048c9c:	8d 85 a4 fb ff ff    	lea    -0x45c(%ebp),%eax
 8048ca2:	89 04 24             	mov    %eax,(%esp)
 8048ca5:	e8 bc 01 00 00       	call   8048e66 <check_error>
 8048caa:	89 45 f4             	mov    %eax,-0xc(%ebp)
 8048cad:	83 7d f4 01          	cmpl   $0x1,-0xc(%ebp)
 8048cb1:	75 16                	jne    8048cc9 <handler2+0xd4>
 8048cb3:	8d 85 a4 fb ff ff    	lea    -0x45c(%ebp),%eax
 8048cb9:	89 44 24 04          	mov    %eax,0x4(%esp)
 8048cbd:	c7 04 24 40 99 04 08 	movl   $0x8049940,(%esp)
 8048cc4:	e8 4b fb ff ff       	call   8048814 <printf@plt>
 8048cc9:	a1 2c ae 04 08       	mov    0x804ae2c,%eax
 8048cce:	39 45 f0             	cmp    %eax,-0x10(%ebp)
 8048cd1:	74 0c                	je     8048cdf <handler2+0xea>
 8048cd3:	c7 04 24 ff ff ff ff 	movl   $0xffffffff,(%esp)
 8048cda:	e8 15 fc ff ff       	call   80488f4 <exit@plt>
 8048cdf:	8b 45 f4             	mov    -0xc(%ebp),%eax
 8048ce2:	c9                   	leave  
 8048ce3:	c3                   	ret    

08048ce4 <handler3>:
 8048ce4:	55                   	push   %ebp
 8048ce5:	89 e5                	mov    %esp,%ebp
 8048ce7:	81 ec 78 04 00 00    	sub    $0x478,%esp
 8048ced:	a1 2c ae 04 08       	mov    0x804ae2c,%eax
 8048cf2:	89 45 f0             	mov    %eax,-0x10(%ebp)
 8048cf5:	c7 45 f4 00 00 00 00 	movl   $0x0,-0xc(%ebp)
 8048cfc:	eb 4a                	jmp    8048d48 <handler3+0x64>
 8048cfe:	8b 55 f4             	mov    -0xc(%ebp),%edx
 8048d01:	8b 45 08             	mov    0x8(%ebp),%eax
 8048d04:	01 d0                	add    %edx,%eax
 8048d06:	0f b6 00             	movzbl (%eax),%eax
 8048d09:	3c 6f                	cmp    $0x6f,%al
 8048d0b:	74 0f                	je     8048d1c <handler3+0x38>
 8048d0d:	8b 55 f4             	mov    -0xc(%ebp),%edx
 8048d10:	8b 45 08             	mov    0x8(%ebp),%eax
 8048d13:	01 d0                	add    %edx,%eax
 8048d15:	0f b6 00             	movzbl (%eax),%eax
 8048d18:	3c 4f                	cmp    $0x4f,%al
 8048d1a:	75 10                	jne    8048d2c <handler3+0x48>
 8048d1c:	8d 95 08 fc ff ff    	lea    -0x3f8(%ebp),%edx
 8048d22:	8b 45 f4             	mov    -0xc(%ebp),%eax
 8048d25:	01 d0                	add    %edx,%eax
 8048d27:	c6 00 30             	movb   $0x30,(%eax)
 8048d2a:	eb 18                	jmp    8048d44 <handler3+0x60>
 8048d2c:	8b 55 f4             	mov    -0xc(%ebp),%edx
 8048d2f:	8b 45 08             	mov    0x8(%ebp),%eax
 8048d32:	01 d0                	add    %edx,%eax
 8048d34:	0f b6 00             	movzbl (%eax),%eax
 8048d37:	8d 8d 08 fc ff ff    	lea    -0x3f8(%ebp),%ecx
 8048d3d:	8b 55 f4             	mov    -0xc(%ebp),%edx
 8048d40:	01 ca                	add    %ecx,%edx
 8048d42:	88 02                	mov    %al,(%edx)
 8048d44:	83 45 f4 01          	addl   $0x1,-0xc(%ebp)
 8048d48:	8b 55 f4             	mov    -0xc(%ebp),%edx
 8048d4b:	8b 45 08             	mov    0x8(%ebp),%eax
 8048d4e:	01 d0                	add    %edx,%eax
 8048d50:	0f b6 00             	movzbl (%eax),%eax
 8048d53:	84 c0                	test   %al,%al
 8048d55:	75 a7                	jne    8048cfe <handler3+0x1a>
 8048d57:	8d 85 08 fc ff ff    	lea    -0x3f8(%ebp),%eax
 8048d5d:	89 04 24             	mov    %eax,(%esp)
 8048d60:	e8 8f fa ff ff       	call   80487f4 <strlen@plt>
 8048d65:	89 44 24 08          	mov    %eax,0x8(%esp)
 8048d69:	8d 85 08 fc ff ff    	lea    -0x3f8(%ebp),%eax
 8048d6f:	89 44 24 04          	mov    %eax,0x4(%esp)
 8048d73:	8b 45 0c             	mov    0xc(%ebp),%eax
 8048d76:	89 04 24             	mov    %eax,(%esp)
 8048d79:	e8 f6 f9 ff ff       	call   8048774 <write@plt>
 8048d7e:	89 45 f4             	mov    %eax,-0xc(%ebp)
 8048d81:	8d 85 08 fc ff ff    	lea    -0x3f8(%ebp),%eax
 8048d87:	89 04 24             	mov    %eax,(%esp)
 8048d8a:	e8 65 fa ff ff       	call   80487f4 <strlen@plt>
 8048d8f:	89 44 24 08          	mov    %eax,0x8(%esp)
 8048d93:	8b 45 f4             	mov    -0xc(%ebp),%eax
 8048d96:	89 44 24 04          	mov    %eax,0x4(%esp)
 8048d9a:	8d 85 a4 fb ff ff    	lea    -0x45c(%ebp),%eax
 8048da0:	89 04 24             	mov    %eax,(%esp)
 8048da3:	e8 be 00 00 00       	call   8048e66 <check_error>
 8048da8:	89 45 f4             	mov    %eax,-0xc(%ebp)
 8048dab:	83 7d f4 01          	cmpl   $0x1,-0xc(%ebp)
 8048daf:	75 16                	jne    8048dc7 <handler3+0xe3>
 8048db1:	8d 85 a4 fb ff ff    	lea    -0x45c(%ebp),%eax
 8048db7:	89 44 24 04          	mov    %eax,0x4(%esp)
 8048dbb:	c7 04 24 40 99 04 08 	movl   $0x8049940,(%esp)
 8048dc2:	e8 4d fa ff ff       	call   8048814 <printf@plt>
 8048dc7:	a1 2c ae 04 08       	mov    0x804ae2c,%eax
 8048dcc:	39 45 f0             	cmp    %eax,-0x10(%ebp)
 8048dcf:	74 0c                	je     8048ddd <handler3+0xf9>
 8048dd1:	c7 04 24 ff ff ff ff 	movl   $0xffffffff,(%esp)
 8048dd8:	e8 17 fb ff ff       	call   80488f4 <exit@plt>
 8048ddd:	8b 45 f4             	mov    -0xc(%ebp),%eax
 8048de0:	c9                   	leave  
 8048de1:	c3                   	ret    

08048de2 <close_connec>:
 8048de2:	55                   	push   %ebp
 8048de3:	89 e5                	mov    %esp,%ebp
 8048de5:	56                   	push   %esi
 8048de6:	53                   	push   %ebx
 8048de7:	83 ec 20             	sub    $0x20,%esp
 8048dea:	a1 2c ae 04 08       	mov    0x804ae2c,%eax
 8048def:	89 45 f4             	mov    %eax,-0xc(%ebp)
 8048df2:	8b 45 08             	mov    0x8(%ebp),%eax
 8048df5:	8b 00                	mov    (%eax),%eax
 8048df7:	8d 50 1f             	lea    0x1f(%eax),%edx
 8048dfa:	85 c0                	test   %eax,%eax
 8048dfc:	0f 48 c2             	cmovs  %edx,%eax
 8048dff:	c1 f8 05             	sar    $0x5,%eax
 8048e02:	8b 1c 85 40 2d 05 08 	mov    0x8052d40(,%eax,4),%ebx
 8048e09:	8b 55 08             	mov    0x8(%ebp),%edx
 8048e0c:	8b 12                	mov    (%edx),%edx
 8048e0e:	89 d1                	mov    %edx,%ecx
 8048e10:	c1 f9 1f             	sar    $0x1f,%ecx
 8048e13:	c1 e9 1b             	shr    $0x1b,%ecx
 8048e16:	01 ca                	add    %ecx,%edx
 8048e18:	83 e2 1f             	and    $0x1f,%edx
 8048e1b:	29 ca                	sub    %ecx,%edx
 8048e1d:	be 01 00 00 00       	mov    $0x1,%esi
 8048e22:	89 d1                	mov    %edx,%ecx
 8048e24:	d3 e6                	shl    %cl,%esi
 8048e26:	89 f2                	mov    %esi,%edx
 8048e28:	f7 d2                	not    %edx
 8048e2a:	21 da                	and    %ebx,%edx
 8048e2c:	89 14 85 40 2d 05 08 	mov    %edx,0x8052d40(,%eax,4)
 8048e33:	8b 45 08             	mov    0x8(%ebp),%eax
 8048e36:	8b 00                	mov    (%eax),%eax
 8048e38:	89 04 24             	mov    %eax,(%esp)
 8048e3b:	e8 24 fa ff ff       	call   8048864 <close@plt>
 8048e40:	8b 45 08             	mov    0x8(%ebp),%eax
 8048e43:	c7 00 ff ff ff ff    	movl   $0xffffffff,(%eax)
 8048e49:	a1 2c ae 04 08       	mov    0x804ae2c,%eax
 8048e4e:	39 45 f4             	cmp    %eax,-0xc(%ebp)
 8048e51:	74 0c                	je     8048e5f <close_connec+0x7d>
 8048e53:	c7 04 24 ff ff ff ff 	movl   $0xffffffff,(%esp)
 8048e5a:	e8 95 fa ff ff       	call   80488f4 <exit@plt>
 8048e5f:	83 c4 20             	add    $0x20,%esp
 8048e62:	5b                   	pop    %ebx
 8048e63:	5e                   	pop    %esi
 8048e64:	5d                   	pop    %ebp
 8048e65:	c3                   	ret    

08048e66 <check_error>:
 8048e66:	55                   	push   %ebp
 8048e67:	89 e5                	mov    %esp,%ebp
 8048e69:	83 ec 28             	sub    $0x28,%esp
 8048e6c:	a1 2c ae 04 08       	mov    0x804ae2c,%eax
 8048e71:	89 45 f4             	mov    %eax,-0xc(%ebp)
 8048e74:	83 7d 0c ff          	cmpl   $0xffffffff,0xc(%ebp)
 8048e78:	75 3b                	jne    8048eb5 <check_error+0x4f>
 8048e7a:	e8 95 f8 ff ff       	call   8048714 <__errno_location@plt>
 8048e7f:	8b 00                	mov    (%eax),%eax
 8048e81:	89 44 24 08          	mov    %eax,0x8(%esp)
 8048e85:	c7 44 24 04 44 99 04 	movl   $0x8049944,0x4(%esp)
 8048e8c:	08 
 8048e8d:	8b 45 08             	mov    0x8(%ebp),%eax
 8048e90:	89 04 24             	mov    %eax,(%esp)
 8048e93:	e8 8c f8 ff ff       	call   8048724 <sprintf@plt>
 8048e98:	a1 2c ae 04 08       	mov    0x804ae2c,%eax
 8048e9d:	39 45 f4             	cmp    %eax,-0xc(%ebp)
 8048ea0:	74 0c                	je     8048eae <check_error+0x48>
 8048ea2:	c7 04 24 ff ff ff ff 	movl   $0xffffffff,(%esp)
 8048ea9:	e8 46 fa ff ff       	call   80488f4 <exit@plt>
 8048eae:	b8 01 00 00 00       	mov    $0x1,%eax
 8048eb3:	eb 73                	jmp    8048f28 <check_error+0xc2>
 8048eb5:	8b 45 0c             	mov    0xc(%ebp),%eax
 8048eb8:	3b 45 10             	cmp    0x10(%ebp),%eax
 8048ebb:	7d 50                	jge    8048f0d <check_error+0xa7>
 8048ebd:	8b 45 08             	mov    0x8(%ebp),%eax
 8048ec0:	c7 00 52 65 73 70    	movl   $0x70736552,(%eax)
 8048ec6:	c7 40 04 6f 6e 73 65 	movl   $0x65736e6f,0x4(%eax)
 8048ecd:	c7 40 08 20 70 61 72 	movl   $0x72617020,0x8(%eax)
 8048ed4:	c7 40 0c 74 69 61 6c 	movl   $0x6c616974,0xc(%eax)
 8048edb:	c7 40 10 6c 79 20 73 	movl   $0x7320796c,0x10(%eax)
 8048ee2:	c7 40 14 65 6e 74 20 	movl   $0x20746e65,0x14(%eax)
 8048ee9:	c7 40 18 21 21 0a 00 	movl   $0xa2121,0x18(%eax)
 8048ef0:	a1 2c ae 04 08       	mov    0x804ae2c,%eax
 8048ef5:	39 45 f4             	cmp    %eax,-0xc(%ebp)
 8048ef8:	74 0c                	je     8048f06 <check_error+0xa0>
 8048efa:	c7 04 24 ff ff ff ff 	movl   $0xffffffff,(%esp)
 8048f01:	e8 ee f9 ff ff       	call   80488f4 <exit@plt>
 8048f06:	b8 01 00 00 00       	mov    $0x1,%eax
 8048f0b:	eb 1b                	jmp    8048f28 <check_error+0xc2>
 8048f0d:	a1 2c ae 04 08       	mov    0x804ae2c,%eax
 8048f12:	39 45 f4             	cmp    %eax,-0xc(%ebp)
 8048f15:	74 0c                	je     8048f23 <check_error+0xbd>
 8048f17:	c7 04 24 ff ff ff ff 	movl   $0xffffffff,(%esp)
 8048f1e:	e8 d1 f9 ff ff       	call   80488f4 <exit@plt>
 8048f23:	b8 00 00 00 00       	mov    $0x0,%eax
 8048f28:	c9                   	leave  
 8048f29:	c3                   	ret    

08048f2a <processbuf>:
 8048f2a:	55                   	push   %ebp
 8048f2b:	89 e5                	mov    %esp,%ebp
 8048f2d:	57                   	push   %edi
 8048f2e:	53                   	push   %ebx
 8048f2f:	81 ec 50 01 00 00    	sub    $0x150,%esp
 8048f35:	c7 85 c0 fe ff ff 00 	movl   $0x0,-0x140(%ebp)
 8048f3c:	00 00 00 
 8048f3f:	8d 9d c4 fe ff ff    	lea    -0x13c(%ebp),%ebx
 8048f45:	b8 00 00 00 00       	mov    $0x0,%eax
 8048f4a:	ba 4a 00 00 00       	mov    $0x4a,%edx
 8048f4f:	89 df                	mov    %ebx,%edi
 8048f51:	89 d1                	mov    %edx,%ecx
 8048f53:	f3 ab                	rep stos %eax,%es:(%edi)
 8048f55:	a1 2c ae 04 08       	mov    0x804ae2c,%eax
 8048f5a:	89 45 f4             	mov    %eax,-0xc(%ebp)
 8048f5d:	8b 45 08             	mov    0x8(%ebp),%eax
 8048f60:	83 c0 04             	add    $0x4,%eax
 8048f63:	c7 44 24 04 88 99 04 	movl   $0x8049988,0x4(%esp)
 8048f6a:	08 
 8048f6b:	89 04 24             	mov    %eax,(%esp)
 8048f6e:	e8 21 f9 ff ff       	call   8048894 <strtok@plt>
 8048f73:	89 45 f0             	mov    %eax,-0x10(%ebp)
 8048f76:	8b 45 f0             	mov    -0x10(%ebp),%eax
 8048f79:	89 04 24             	mov    %eax,(%esp)
 8048f7c:	e8 b3 f8 ff ff       	call   8048834 <atol@plt>
 8048f81:	89 45 ec             	mov    %eax,-0x14(%ebp)
 8048f84:	83 7d ec 00          	cmpl   $0x0,-0x14(%ebp)
 8048f88:	7e 06                	jle    8048f90 <processbuf+0x66>
 8048f8a:	83 7d ec 03          	cmpl   $0x3,-0x14(%ebp)
 8048f8e:	7e 1d                	jle    8048fad <processbuf+0x83>
 8048f90:	a1 2c ae 04 08       	mov    0x804ae2c,%eax
 8048f95:	39 45 f4             	cmp    %eax,-0xc(%ebp)
 8048f98:	74 0c                	je     8048fa6 <processbuf+0x7c>
 8048f9a:	c7 04 24 ff ff ff ff 	movl   $0xffffffff,(%esp)
 8048fa1:	e8 4e f9 ff ff       	call   80488f4 <exit@plt>
 8048fa6:	b8 00 00 00 00       	mov    $0x0,%eax
 8048fab:	eb 6d                	jmp    804901a <processbuf+0xf0>
 8048fad:	c7 44 24 04 88 99 04 	movl   $0x8049988,0x4(%esp)
 8048fb4:	08 
 8048fb5:	c7 04 24 00 00 00 00 	movl   $0x0,(%esp)
 8048fbc:	e8 d3 f8 ff ff       	call   8048894 <strtok@plt>
 8048fc1:	89 45 f0             	mov    %eax,-0x10(%ebp)
 8048fc4:	c7 44 24 08 2c 01 00 	movl   $0x12c,0x8(%esp)
 8048fcb:	00 
 8048fcc:	8b 45 f0             	mov    -0x10(%ebp),%eax
 8048fcf:	89 44 24 04          	mov    %eax,0x4(%esp)
 8048fd3:	8d 85 c0 fe ff ff    	lea    -0x140(%ebp),%eax
 8048fd9:	89 04 24             	mov    %eax,(%esp)
 8048fdc:	e8 a3 f8 ff ff       	call   8048884 <strncat@plt>
 8048fe1:	8b 45 ec             	mov    -0x14(%ebp),%eax
 8048fe4:	8b 04 85 34 ae 04 08 	mov    0x804ae34(,%eax,4),%eax
 8048feb:	8b 55 08             	mov    0x8(%ebp),%edx
 8048fee:	8b 12                	mov    (%edx),%edx
 8048ff0:	89 54 24 04          	mov    %edx,0x4(%esp)
 8048ff4:	8d 95 c0 fe ff ff    	lea    -0x140(%ebp),%edx
 8048ffa:	89 14 24             	mov    %edx,(%esp)
 8048ffd:	ff d0                	call   *%eax
 8048fff:	a1 2c ae 04 08       	mov    0x804ae2c,%eax
 8049004:	39 45 f4             	cmp    %eax,-0xc(%ebp)
 8049007:	74 0c                	je     8049015 <processbuf+0xeb>
 8049009:	c7 04 24 ff ff ff ff 	movl   $0xffffffff,(%esp)
 8049010:	e8 df f8 ff ff       	call   80488f4 <exit@plt>
 8049015:	b8 01 00 00 00       	mov    $0x1,%eax
 804901a:	81 c4 50 01 00 00    	add    $0x150,%esp
 8049020:	5b                   	pop    %ebx
 8049021:	5f                   	pop    %edi
 8049022:	5d                   	pop    %ebp
 8049023:	c3                   	ret    

08049024 <server>:
 8049024:	55                   	push   %ebp
 8049025:	89 e5                	mov    %esp,%ebp
 8049027:	57                   	push   %edi
 8049028:	56                   	push   %esi
 8049029:	53                   	push   %ebx
 804902a:	81 ec fc 00 00 00    	sub    $0xfc,%esp
 8049030:	c7 45 bc 01 00 00 00 	movl   $0x1,-0x44(%ebp)
 8049037:	a1 2c ae 04 08       	mov    0x804ae2c,%eax
 804903c:	89 45 d0             	mov    %eax,-0x30(%ebp)
 804903f:	c7 44 24 08 00 00 00 	movl   $0x0,0x8(%esp)
 8049046:	00 
 8049047:	c7 44 24 04 01 00 00 	movl   $0x1,0x4(%esp)
 804904e:	00 
 804904f:	c7 04 24 02 00 00 00 	movl   $0x2,(%esp)
 8049056:	e8 89 f7 ff ff       	call   80487e4 <socket@plt>
 804905b:	89 45 cc             	mov    %eax,-0x34(%ebp)
 804905e:	83 7d cc ff          	cmpl   $0xffffffff,-0x34(%ebp)
 8049062:	75 16                	jne    804907a <server+0x56>
 8049064:	c7 04 24 8c 99 04 08 	movl   $0x804998c,(%esp)
 804906b:	e8 34 f8 ff ff       	call   80488a4 <puts@plt>
 8049070:	b8 00 00 00 00       	mov    $0x0,%eax
 8049075:	e9 18 06 00 00       	jmp    8049692 <server+0x66e>
 804907a:	c7 44 24 10 04 00 00 	movl   $0x4,0x10(%esp)
 8049081:	00 
 8049082:	8d 45 bc             	lea    -0x44(%ebp),%eax
 8049085:	89 44 24 0c          	mov    %eax,0xc(%esp)
 8049089:	c7 44 24 08 02 00 00 	movl   $0x2,0x8(%esp)
 8049090:	00 
 8049091:	c7 44 24 04 01 00 00 	movl   $0x1,0x4(%esp)
 8049098:	00 
 8049099:	8b 45 cc             	mov    -0x34(%ebp),%eax
 804909c:	89 04 24             	mov    %eax,(%esp)
 804909f:	e8 10 f8 ff ff       	call   80488b4 <setsockopt@plt>
 80490a4:	83 f8 ff             	cmp    $0xffffffff,%eax
 80490a7:	75 17                	jne    80490c0 <server+0x9c>
 80490a9:	e8 66 f6 ff ff       	call   8048714 <__errno_location@plt>
 80490ae:	8b 00                	mov    (%eax),%eax
 80490b0:	89 44 24 04          	mov    %eax,0x4(%esp)
 80490b4:	c7 04 24 ac 99 04 08 	movl   $0x80499ac,(%esp)
 80490bb:	e8 54 f7 ff ff       	call   8048814 <printf@plt>
 80490c0:	66 c7 05 c0 2d 05 08 	movw   $0x2,0x8052dc0
 80490c7:	02 00 
 80490c9:	a1 30 ae 04 08       	mov    0x804ae30,%eax
 80490ce:	0f b7 c0             	movzwl %ax,%eax
 80490d1:	89 04 24             	mov    %eax,(%esp)
 80490d4:	e8 cb f6 ff ff       	call   80487a4 <htons@plt>
 80490d9:	66 a3 c2 2d 05 08    	mov    %ax,0x8052dc2
 80490df:	c7 04 24 00 00 00 00 	movl   $0x0,(%esp)
 80490e6:	e8 e9 f7 ff ff       	call   80488d4 <htonl@plt>
 80490eb:	a3 c4 2d 05 08       	mov    %eax,0x8052dc4
 80490f0:	c7 44 24 08 10 00 00 	movl   $0x10,0x8(%esp)
 80490f7:	00 
 80490f8:	c7 44 24 04 c0 2d 05 	movl   $0x8052dc0,0x4(%esp)
 80490ff:	08 
 8049100:	8b 45 cc             	mov    -0x34(%ebp),%eax
 8049103:	89 04 24             	mov    %eax,(%esp)
 8049106:	e8 19 f7 ff ff       	call   8048824 <bind@plt>
 804910b:	83 f8 ff             	cmp    $0xffffffff,%eax
 804910e:	75 21                	jne    8049131 <server+0x10d>
 8049110:	e8 ff f5 ff ff       	call   8048714 <__errno_location@plt>
 8049115:	8b 00                	mov    (%eax),%eax
 8049117:	89 44 24 04          	mov    %eax,0x4(%esp)
 804911b:	c7 04 24 da 99 04 08 	movl   $0x80499da,(%esp)
 8049122:	e8 ed f6 ff ff       	call   8048814 <printf@plt>
 8049127:	b8 00 00 00 00       	mov    $0x0,%eax
 804912c:	e9 61 05 00 00       	jmp    8049692 <server+0x66e>
 8049131:	c7 44 24 04 0a 00 00 	movl   $0xa,0x4(%esp)
 8049138:	00 
 8049139:	8b 45 cc             	mov    -0x34(%ebp),%eax
 804913c:	89 04 24             	mov    %eax,(%esp)
 804913f:	e8 40 f6 ff ff       	call   8048784 <listen@plt>
 8049144:	85 c0                	test   %eax,%eax
 8049146:	79 16                	jns    804915e <server+0x13a>
 8049148:	c7 04 24 f2 99 04 08 	movl   $0x80499f2,(%esp)
 804914f:	e8 50 f7 ff ff       	call   80488a4 <puts@plt>
 8049154:	b8 00 00 00 00       	mov    $0x0,%eax
 8049159:	e9 34 05 00 00       	jmp    8049692 <server+0x66e>
 804915e:	8b 45 cc             	mov    -0x34(%ebp),%eax
 8049161:	89 45 dc             	mov    %eax,-0x24(%ebp)
 8049164:	b8 00 00 00 00       	mov    $0x0,%eax
 8049169:	b9 20 00 00 00       	mov    $0x20,%ecx
 804916e:	ba 40 2d 05 08       	mov    $0x8052d40,%edx
 8049173:	89 d7                	mov    %edx,%edi
 8049175:	fc                   	cld    
 8049176:	f3 ab                	rep stos %eax,%es:(%edi)
 8049178:	89 fa                	mov    %edi,%edx
 804917a:	89 4d c8             	mov    %ecx,-0x38(%ebp)
 804917d:	89 55 c4             	mov    %edx,-0x3c(%ebp)
 8049180:	8b 45 cc             	mov    -0x34(%ebp),%eax
 8049183:	8d 50 1f             	lea    0x1f(%eax),%edx
 8049186:	85 c0                	test   %eax,%eax
 8049188:	0f 48 c2             	cmovs  %edx,%eax
 804918b:	c1 f8 05             	sar    $0x5,%eax
 804918e:	8b 1c 85 40 2d 05 08 	mov    0x8052d40(,%eax,4),%ebx
 8049195:	8b 55 cc             	mov    -0x34(%ebp),%edx
 8049198:	89 d1                	mov    %edx,%ecx
 804919a:	c1 f9 1f             	sar    $0x1f,%ecx
 804919d:	c1 e9 1b             	shr    $0x1b,%ecx
 80491a0:	01 ca                	add    %ecx,%edx
 80491a2:	83 e2 1f             	and    $0x1f,%edx
 80491a5:	29 ca                	sub    %ecx,%edx
 80491a7:	be 01 00 00 00       	mov    $0x1,%esi
 80491ac:	89 d1                	mov    %edx,%ecx
 80491ae:	d3 e6                	shl    %cl,%esi
 80491b0:	89 f2                	mov    %esi,%edx
 80491b2:	09 da                	or     %ebx,%edx
 80491b4:	89 14 85 40 2d 05 08 	mov    %edx,0x8052d40(,%eax,4)
 80491bb:	c7 45 d8 00 00 00 00 	movl   $0x0,-0x28(%ebp)
 80491c2:	c7 85 24 ff ff ff 01 	movl   $0x1,-0xdc(%ebp)
 80491c9:	00 00 00 
 80491cc:	c7 85 28 ff ff ff 00 	movl   $0x0,-0xd8(%ebp)
 80491d3:	00 00 00 
 80491d6:	c7 04 24 0f 9a 04 08 	movl   $0x8049a0f,(%esp)
 80491dd:	e8 c2 f6 ff ff       	call   80488a4 <puts@plt>
 80491e2:	8d 95 3c ff ff ff    	lea    -0xc4(%ebp),%edx
 80491e8:	bb 40 2d 05 08       	mov    $0x8052d40,%ebx
 80491ed:	b8 20 00 00 00       	mov    $0x20,%eax
 80491f2:	89 d7                	mov    %edx,%edi
 80491f4:	89 de                	mov    %ebx,%esi
 80491f6:	89 c1                	mov    %eax,%ecx
 80491f8:	f3 a5                	rep movsl %ds:(%esi),%es:(%edi)
 80491fa:	8b 45 dc             	mov    -0x24(%ebp),%eax
 80491fd:	8d 50 01             	lea    0x1(%eax),%edx
 8049200:	8d 85 24 ff ff ff    	lea    -0xdc(%ebp),%eax
 8049206:	89 44 24 10          	mov    %eax,0x10(%esp)
 804920a:	c7 44 24 0c 00 00 00 	movl   $0x0,0xc(%esp)
 8049211:	00 
 8049212:	c7 44 24 08 00 00 00 	movl   $0x0,0x8(%esp)
 8049219:	00 
 804921a:	8d 85 3c ff ff ff    	lea    -0xc4(%ebp),%eax
 8049220:	89 44 24 04          	mov    %eax,0x4(%esp)
 8049224:	89 14 24             	mov    %edx,(%esp)
 8049227:	e8 18 f6 ff ff       	call   8048844 <select@plt>
 804922c:	8b 45 cc             	mov    -0x34(%ebp),%eax
 804922f:	8d 50 1f             	lea    0x1f(%eax),%edx
 8049232:	85 c0                	test   %eax,%eax
 8049234:	0f 48 c2             	cmovs  %edx,%eax
 8049237:	c1 f8 05             	sar    $0x5,%eax
 804923a:	8b 9c 85 3c ff ff ff 	mov    -0xc4(%ebp,%eax,4),%ebx
 8049241:	8b 45 cc             	mov    -0x34(%ebp),%eax
 8049244:	99                   	cltd   
 8049245:	c1 ea 1b             	shr    $0x1b,%edx
 8049248:	01 d0                	add    %edx,%eax
 804924a:	83 e0 1f             	and    $0x1f,%eax
 804924d:	29 d0                	sub    %edx,%eax
 804924f:	89 c1                	mov    %eax,%ecx
 8049251:	d3 fb                	sar    %cl,%ebx
 8049253:	89 d8                	mov    %ebx,%eax
 8049255:	83 e0 01             	and    $0x1,%eax
 8049258:	85 c0                	test   %eax,%eax
 804925a:	0f 84 8d 01 00 00    	je     80493ed <server+0x3c9>
 8049260:	83 7d d8 1e          	cmpl   $0x1e,-0x28(%ebp)
 8049264:	0f 8f 79 01 00 00    	jg     80493e3 <server+0x3bf>
 804926a:	c7 04 24 19 9a 04 08 	movl   $0x8049a19,(%esp)
 8049271:	e8 2e f6 ff ff       	call   80488a4 <puts@plt>
 8049276:	c7 85 20 ff ff ff 10 	movl   $0x10,-0xe0(%ebp)
 804927d:	00 00 00 
 8049280:	8b 5d d8             	mov    -0x28(%ebp),%ebx
 8049283:	8d 43 01             	lea    0x1(%ebx),%eax
 8049286:	89 45 d8             	mov    %eax,-0x28(%ebp)
 8049289:	8d 85 20 ff ff ff    	lea    -0xe0(%ebp),%eax
 804928f:	89 44 24 08          	mov    %eax,0x8(%esp)
 8049293:	8d 85 2c ff ff ff    	lea    -0xd4(%ebp),%eax
 8049299:	89 44 24 04          	mov    %eax,0x4(%esp)
 804929d:	8b 45 cc             	mov    -0x34(%ebp),%eax
 80492a0:	89 04 24             	mov    %eax,(%esp)
 80492a3:	e8 2c f5 ff ff       	call   80487d4 <accept@plt>
 80492a8:	69 d3 f4 03 00 00    	imul   $0x3f4,%ebx,%edx
 80492ae:	81 c2 a0 ae 04 08    	add    $0x804aea0,%edx
 80492b4:	89 02                	mov    %eax,(%edx)
 80492b6:	8b 45 d8             	mov    -0x28(%ebp),%eax
 80492b9:	83 e8 01             	sub    $0x1,%eax
 80492bc:	69 c0 f4 03 00 00    	imul   $0x3f4,%eax,%eax
 80492c2:	05 a0 ae 04 08       	add    $0x804aea0,%eax
 80492c7:	8b 00                	mov    (%eax),%eax
 80492c9:	85 c0                	test   %eax,%eax
 80492cb:	79 21                	jns    80492ee <server+0x2ca>
 80492cd:	e8 42 f4 ff ff       	call   8048714 <__errno_location@plt>
 80492d2:	8b 00                	mov    (%eax),%eax
 80492d4:	89 44 24 04          	mov    %eax,0x4(%esp)
 80492d8:	c7 04 24 27 9a 04 08 	movl   $0x8049a27,(%esp)
 80492df:	e8 30 f5 ff ff       	call   8048814 <printf@plt>
 80492e4:	b8 00 00 00 00       	mov    $0x0,%eax
 80492e9:	e9 a4 03 00 00       	jmp    8049692 <server+0x66e>
 80492ee:	8b 45 d8             	mov    -0x28(%ebp),%eax
 80492f1:	83 e8 01             	sub    $0x1,%eax
 80492f4:	69 c0 f4 03 00 00    	imul   $0x3f4,%eax,%eax
 80492fa:	05 a0 ae 04 08       	add    $0x804aea0,%eax
 80492ff:	8b 00                	mov    (%eax),%eax
 8049301:	3b 45 dc             	cmp    -0x24(%ebp),%eax
 8049304:	7e 16                	jle    804931c <server+0x2f8>
 8049306:	8b 45 d8             	mov    -0x28(%ebp),%eax
 8049309:	83 e8 01             	sub    $0x1,%eax
 804930c:	69 c0 f4 03 00 00    	imul   $0x3f4,%eax,%eax
 8049312:	05 a0 ae 04 08       	add    $0x804aea0,%eax
 8049317:	8b 00                	mov    (%eax),%eax
 8049319:	89 45 dc             	mov    %eax,-0x24(%ebp)
 804931c:	c7 44 24 04 00 00 00 	movl   $0x0,0x4(%esp)
 8049323:	00 
 8049324:	c7 04 24 20 2d 05 08 	movl   $0x8052d20,(%esp)
 804932b:	e8 94 f4 ff ff       	call   80487c4 <gettimeofday@plt>
 8049330:	8b 45 d8             	mov    -0x28(%ebp),%eax
 8049333:	8d 50 ff             	lea    -0x1(%eax),%edx
 8049336:	a1 20 2d 05 08       	mov    0x8052d20,%eax
 804933b:	69 d2 f4 03 00 00    	imul   $0x3f4,%edx,%edx
 8049341:	81 c2 90 b2 04 08    	add    $0x804b290,%edx
 8049347:	89 02                	mov    %eax,(%edx)
 8049349:	8b 45 d8             	mov    -0x28(%ebp),%eax
 804934c:	83 e8 01             	sub    $0x1,%eax
 804934f:	69 c0 f4 03 00 00    	imul   $0x3f4,%eax,%eax
 8049355:	05 a0 ae 04 08       	add    $0x804aea0,%eax
 804935a:	83 c0 04             	add    $0x4,%eax
 804935d:	c7 44 24 04 e8 03 00 	movl   $0x3e8,0x4(%esp)
 8049364:	00 
 8049365:	89 04 24             	mov    %eax,(%esp)
 8049368:	e8 57 f5 ff ff       	call   80488c4 <bzero@plt>
 804936d:	8b 45 d8             	mov    -0x28(%ebp),%eax
 8049370:	83 e8 01             	sub    $0x1,%eax
 8049373:	69 c0 f4 03 00 00    	imul   $0x3f4,%eax,%eax
 8049379:	05 80 b2 04 08       	add    $0x804b280,%eax
 804937e:	c7 40 0c 00 00 00 00 	movl   $0x0,0xc(%eax)
 8049385:	8b 45 d8             	mov    -0x28(%ebp),%eax
 8049388:	83 e8 01             	sub    $0x1,%eax
 804938b:	69 c0 f4 03 00 00    	imul   $0x3f4,%eax,%eax
 8049391:	05 a0 ae 04 08       	add    $0x804aea0,%eax
 8049396:	8b 00                	mov    (%eax),%eax
 8049398:	8d 50 1f             	lea    0x1f(%eax),%edx
 804939b:	85 c0                	test   %eax,%eax
 804939d:	0f 48 c2             	cmovs  %edx,%eax
 80493a0:	c1 f8 05             	sar    $0x5,%eax
 80493a3:	8b 1c 85 40 2d 05 08 	mov    0x8052d40(,%eax,4),%ebx
 80493aa:	8b 55 d8             	mov    -0x28(%ebp),%edx
 80493ad:	83 ea 01             	sub    $0x1,%edx
 80493b0:	69 d2 f4 03 00 00    	imul   $0x3f4,%edx,%edx
 80493b6:	81 c2 a0 ae 04 08    	add    $0x804aea0,%edx
 80493bc:	8b 12                	mov    (%edx),%edx
 80493be:	89 d1                	mov    %edx,%ecx
 80493c0:	c1 f9 1f             	sar    $0x1f,%ecx
 80493c3:	c1 e9 1b             	shr    $0x1b,%ecx
 80493c6:	01 ca                	add    %ecx,%edx
 80493c8:	83 e2 1f             	and    $0x1f,%edx
 80493cb:	29 ca                	sub    %ecx,%edx
 80493cd:	be 01 00 00 00       	mov    $0x1,%esi
 80493d2:	89 d1                	mov    %edx,%ecx
 80493d4:	d3 e6                	shl    %cl,%esi
 80493d6:	89 f2                	mov    %esi,%edx
 80493d8:	09 da                	or     %ebx,%edx
 80493da:	89 14 85 40 2d 05 08 	mov    %edx,0x8052d40(,%eax,4)
 80493e1:	eb 0a                	jmp    80493ed <server+0x3c9>
 80493e3:	b8 00 00 00 00       	mov    $0x0,%eax
 80493e8:	e9 a5 02 00 00       	jmp    8049692 <server+0x66e>
 80493ed:	c7 45 d4 00 00 00 00 	movl   $0x0,-0x2c(%ebp)
 80493f4:	e9 7b 01 00 00       	jmp    8049574 <server+0x550>
 80493f9:	8b 45 d4             	mov    -0x2c(%ebp),%eax
 80493fc:	69 c0 f4 03 00 00    	imul   $0x3f4,%eax,%eax
 8049402:	05 a0 ae 04 08       	add    $0x804aea0,%eax
 8049407:	8b 00                	mov    (%eax),%eax
 8049409:	85 c0                	test   %eax,%eax
 804940b:	79 05                	jns    8049412 <server+0x3ee>
 804940d:	e9 5e 01 00 00       	jmp    8049570 <server+0x54c>
 8049412:	8b 45 d4             	mov    -0x2c(%ebp),%eax
 8049415:	69 c0 f4 03 00 00    	imul   $0x3f4,%eax,%eax
 804941b:	05 a0 ae 04 08       	add    $0x804aea0,%eax
 8049420:	8b 00                	mov    (%eax),%eax
 8049422:	8d 50 1f             	lea    0x1f(%eax),%edx
 8049425:	85 c0                	test   %eax,%eax
 8049427:	0f 48 c2             	cmovs  %edx,%eax
 804942a:	c1 f8 05             	sar    $0x5,%eax
 804942d:	8b 9c 85 3c ff ff ff 	mov    -0xc4(%ebp,%eax,4),%ebx
 8049434:	8b 45 d4             	mov    -0x2c(%ebp),%eax
 8049437:	69 c0 f4 03 00 00    	imul   $0x3f4,%eax,%eax
 804943d:	05 a0 ae 04 08       	add    $0x804aea0,%eax
 8049442:	8b 00                	mov    (%eax),%eax
 8049444:	99                   	cltd   
 8049445:	c1 ea 1b             	shr    $0x1b,%edx
 8049448:	01 d0                	add    %edx,%eax
 804944a:	83 e0 1f             	and    $0x1f,%eax
 804944d:	29 d0                	sub    %edx,%eax
 804944f:	89 c1                	mov    %eax,%ecx
 8049451:	d3 fb                	sar    %cl,%ebx
 8049453:	89 d8                	mov    %ebx,%eax
 8049455:	83 e0 01             	and    $0x1,%eax
 8049458:	85 c0                	test   %eax,%eax
 804945a:	0f 84 10 01 00 00    	je     8049570 <server+0x54c>
 8049460:	c7 45 c0 00 00 00 00 	movl   $0x0,-0x40(%ebp)
 8049467:	8b 45 d4             	mov    -0x2c(%ebp),%eax
 804946a:	69 c0 f4 03 00 00    	imul   $0x3f4,%eax,%eax
 8049470:	05 80 b2 04 08       	add    $0x804b280,%eax
 8049475:	8b 40 0c             	mov    0xc(%eax),%eax
 8049478:	ba e7 03 00 00       	mov    $0x3e7,%edx
 804947d:	29 c2                	sub    %eax,%edx
 804947f:	89 d0                	mov    %edx,%eax
 8049481:	89 c2                	mov    %eax,%edx
 8049483:	8b 45 d4             	mov    -0x2c(%ebp),%eax
 8049486:	69 c0 f4 03 00 00    	imul   $0x3f4,%eax,%eax
 804948c:	05 80 b2 04 08       	add    $0x804b280,%eax
 8049491:	8b 40 0c             	mov    0xc(%eax),%eax
 8049494:	8b 4d d4             	mov    -0x2c(%ebp),%ecx
 8049497:	69 c9 f4 03 00 00    	imul   $0x3f4,%ecx,%ecx
 804949d:	01 c8                	add    %ecx,%eax
 804949f:	05 a0 ae 04 08       	add    $0x804aea0,%eax
 80494a4:	8d 48 04             	lea    0x4(%eax),%ecx
 80494a7:	8b 45 d4             	mov    -0x2c(%ebp),%eax
 80494aa:	69 c0 f4 03 00 00    	imul   $0x3f4,%eax,%eax
 80494b0:	05 a0 ae 04 08       	add    $0x804aea0,%eax
 80494b5:	8b 00                	mov    (%eax),%eax
 80494b7:	89 54 24 08          	mov    %edx,0x8(%esp)
 80494bb:	89 4c 24 04          	mov    %ecx,0x4(%esp)
 80494bf:	89 04 24             	mov    %eax,(%esp)
 80494c2:	e8 ed f2 ff ff       	call   80487b4 <read@plt>
 80494c7:	89 45 c0             	mov    %eax,-0x40(%ebp)
 80494ca:	8b 45 d4             	mov    -0x2c(%ebp),%eax
 80494cd:	69 c0 f4 03 00 00    	imul   $0x3f4,%eax,%eax
 80494d3:	05 80 b2 04 08       	add    $0x804b280,%eax
 80494d8:	8b 50 0c             	mov    0xc(%eax),%edx
 80494db:	8b 45 c0             	mov    -0x40(%ebp),%eax
 80494de:	01 c2                	add    %eax,%edx
 80494e0:	8b 45 d4             	mov    -0x2c(%ebp),%eax
 80494e3:	69 c0 f4 03 00 00    	imul   $0x3f4,%eax,%eax
 80494e9:	05 80 b2 04 08       	add    $0x804b280,%eax
 80494ee:	89 50 0c             	mov    %edx,0xc(%eax)
 80494f1:	83 7d c0 00          	cmpl   $0x0,-0x40(%ebp)
 80494f5:	75 18                	jne    804950f <server+0x4eb>
 80494f7:	8b 45 d4             	mov    -0x2c(%ebp),%eax
 80494fa:	69 c0 f4 03 00 00    	imul   $0x3f4,%eax,%eax
 8049500:	05 a0 ae 04 08       	add    $0x804aea0,%eax
 8049505:	89 04 24             	mov    %eax,(%esp)
 8049508:	e8 d5 f8 ff ff       	call   8048de2 <close_connec>
 804950d:	eb 37                	jmp    8049546 <server+0x522>
 804950f:	8b 45 d4             	mov    -0x2c(%ebp),%eax
 8049512:	69 c0 f4 03 00 00    	imul   $0x3f4,%eax,%eax
 8049518:	05 a0 ae 04 08       	add    $0x804aea0,%eax
 804951d:	89 04 24             	mov    %eax,(%esp)
 8049520:	e8 05 fa ff ff       	call   8048f2a <processbuf>
 8049525:	8b 45 d4             	mov    -0x2c(%ebp),%eax
 8049528:	69 c0 f4 03 00 00    	imul   $0x3f4,%eax,%eax
 804952e:	05 a0 ae 04 08       	add    $0x804aea0,%eax
 8049533:	83 c0 04             	add    $0x4,%eax
 8049536:	c7 44 24 04 e8 03 00 	movl   $0x3e8,0x4(%esp)
 804953d:	00 
 804953e:	89 04 24             	mov    %eax,(%esp)
 8049541:	e8 7e f3 ff ff       	call   80488c4 <bzero@plt>
 8049546:	c7 44 24 04 00 00 00 	movl   $0x0,0x4(%esp)
 804954d:	00 
 804954e:	c7 04 24 20 2d 05 08 	movl   $0x8052d20,(%esp)
 8049555:	e8 6a f2 ff ff       	call   80487c4 <gettimeofday@plt>
 804955a:	a1 20 2d 05 08       	mov    0x8052d20,%eax
 804955f:	8b 55 d4             	mov    -0x2c(%ebp),%edx
 8049562:	69 d2 f4 03 00 00    	imul   $0x3f4,%edx,%edx
 8049568:	81 c2 90 b2 04 08    	add    $0x804b290,%edx
 804956e:	89 02                	mov    %eax,(%edx)
 8049570:	83 45 d4 01          	addl   $0x1,-0x2c(%ebp)
 8049574:	8b 45 d4             	mov    -0x2c(%ebp),%eax
 8049577:	3b 45 d8             	cmp    -0x28(%ebp),%eax
 804957a:	0f 8c 79 fe ff ff    	jl     80493f9 <server+0x3d5>
 8049580:	c7 44 24 04 00 00 00 	movl   $0x0,0x4(%esp)
 8049587:	00 
 8049588:	c7 04 24 20 2d 05 08 	movl   $0x8052d20,(%esp)
 804958f:	e8 30 f2 ff ff       	call   80487c4 <gettimeofday@plt>
 8049594:	c7 45 d4 00 00 00 00 	movl   $0x0,-0x2c(%ebp)
 804959b:	eb 4f                	jmp    80495ec <server+0x5c8>
 804959d:	8b 45 d4             	mov    -0x2c(%ebp),%eax
 80495a0:	69 c0 f4 03 00 00    	imul   $0x3f4,%eax,%eax
 80495a6:	05 a0 ae 04 08       	add    $0x804aea0,%eax
 80495ab:	8b 00                	mov    (%eax),%eax
 80495ad:	85 c0                	test   %eax,%eax
 80495af:	79 02                	jns    80495b3 <server+0x58f>
 80495b1:	eb 35                	jmp    80495e8 <server+0x5c4>
 80495b3:	8b 15 20 2d 05 08    	mov    0x8052d20,%edx
 80495b9:	8b 45 d4             	mov    -0x2c(%ebp),%eax
 80495bc:	69 c0 f4 03 00 00    	imul   $0x3f4,%eax,%eax
 80495c2:	05 90 b2 04 08       	add    $0x804b290,%eax
 80495c7:	8b 00                	mov    (%eax),%eax
 80495c9:	29 c2                	sub    %eax,%edx
 80495cb:	89 d0                	mov    %edx,%eax
 80495cd:	83 f8 05             	cmp    $0x5,%eax
 80495d0:	7e 16                	jle    80495e8 <server+0x5c4>
 80495d2:	8b 45 d4             	mov    -0x2c(%ebp),%eax
 80495d5:	69 c0 f4 03 00 00    	imul   $0x3f4,%eax,%eax
 80495db:	05 a0 ae 04 08       	add    $0x804aea0,%eax
 80495e0:	89 04 24             	mov    %eax,(%esp)
 80495e3:	e8 fa f7 ff ff       	call   8048de2 <close_connec>
 80495e8:	83 45 d4 01          	addl   $0x1,-0x2c(%ebp)
 80495ec:	8b 45 d4             	mov    -0x2c(%ebp),%eax
 80495ef:	3b 45 d8             	cmp    -0x28(%ebp),%eax
 80495f2:	7c a9                	jl     804959d <server+0x579>
 80495f4:	83 7d d8 0a          	cmpl   $0xa,-0x28(%ebp)
 80495f8:	0f 85 8f 00 00 00    	jne    804968d <server+0x669>
 80495fe:	c7 45 e0 00 00 00 00 	movl   $0x0,-0x20(%ebp)
 8049605:	c7 45 e4 00 00 00 00 	movl   $0x0,-0x1c(%ebp)
 804960c:	eb 6c                	jmp    804967a <server+0x656>
 804960e:	8b 45 e4             	mov    -0x1c(%ebp),%eax
 8049611:	69 c0 f4 03 00 00    	imul   $0x3f4,%eax,%eax
 8049617:	05 a0 ae 04 08       	add    $0x804aea0,%eax
 804961c:	8b 00                	mov    (%eax),%eax
 804961e:	85 c0                	test   %eax,%eax
 8049620:	78 54                	js     8049676 <server+0x652>
 8049622:	8b 45 e0             	mov    -0x20(%ebp),%eax
 8049625:	3b 45 e4             	cmp    -0x1c(%ebp),%eax
 8049628:	75 06                	jne    8049630 <server+0x60c>
 804962a:	83 45 e0 01          	addl   $0x1,-0x20(%ebp)
 804962e:	eb 46                	jmp    8049676 <server+0x652>
 8049630:	8b 45 e0             	mov    -0x20(%ebp),%eax
 8049633:	8d 50 01             	lea    0x1(%eax),%edx
 8049636:	89 55 e0             	mov    %edx,-0x20(%ebp)
 8049639:	69 c0 f4 03 00 00    	imul   $0x3f4,%eax,%eax
 804963f:	8d 90 a0 ae 04 08    	lea    0x804aea0(%eax),%edx
 8049645:	8b 45 e4             	mov    -0x1c(%ebp),%eax
 8049648:	69 c0 f4 03 00 00    	imul   $0x3f4,%eax,%eax
 804964e:	05 a0 ae 04 08       	add    $0x804aea0,%eax
 8049653:	89 c3                	mov    %eax,%ebx
 8049655:	b8 fd 00 00 00       	mov    $0xfd,%eax
 804965a:	89 d7                	mov    %edx,%edi
 804965c:	89 de                	mov    %ebx,%esi
 804965e:	89 c1                	mov    %eax,%ecx
 8049660:	f3 a5                	rep movsl %ds:(%esi),%es:(%edi)
 8049662:	8b 45 e4             	mov    -0x1c(%ebp),%eax
 8049665:	69 c0 f4 03 00 00    	imul   $0x3f4,%eax,%eax
 804966b:	05 a0 ae 04 08       	add    $0x804aea0,%eax
 8049670:	c7 00 ff ff ff ff    	movl   $0xffffffff,(%eax)
 8049676:	83 45 e4 01          	addl   $0x1,-0x1c(%ebp)
 804967a:	8b 45 e4             	mov    -0x1c(%ebp),%eax
 804967d:	3b 45 d8             	cmp    -0x28(%ebp),%eax
 8049680:	7c 8c                	jl     804960e <server+0x5ea>
 8049682:	8b 45 e0             	mov    -0x20(%ebp),%eax
 8049685:	89 45 d8             	mov    %eax,-0x28(%ebp)
 8049688:	e9 55 fb ff ff       	jmp    80491e2 <server+0x1be>
 804968d:	e9 50 fb ff ff       	jmp    80491e2 <server+0x1be>
 8049692:	81 c4 fc 00 00 00    	add    $0xfc,%esp
 8049698:	5b                   	pop    %ebx
 8049699:	5e                   	pop    %esi
 804969a:	5f                   	pop    %edi
 804969b:	5d                   	pop    %ebp
 804969c:	c3                   	ret    

0804969d <launcher>:
 804969d:	55                   	push   %ebp
 804969e:	89 e5                	mov    %esp,%ebp
 80496a0:	83 ec 38             	sub    $0x38,%esp
 80496a3:	8b 45 08             	mov    0x8(%ebp),%eax
 80496a6:	a3 6c ae 04 08       	mov    %eax,0x804ae6c
 80496ab:	8b 45 0c             	mov    0xc(%ebp),%eax
 80496ae:	a3 70 ae 04 08       	mov    %eax,0x804ae70
 80496b3:	c7 44 24 14 00 00 00 	movl   $0x0,0x14(%esp)
 80496ba:	00 
 80496bb:	c7 44 24 10 00 00 00 	movl   $0x0,0x10(%esp)
 80496c2:	00 
 80496c3:	c7 44 24 0c 22 00 00 	movl   $0x22,0xc(%esp)
 80496ca:	00 
 80496cb:	c7 44 24 08 07 00 00 	movl   $0x7,0x8(%esp)
 80496d2:	00 
 80496d3:	c7 44 24 04 00 00 10 	movl   $0x100000,0x4(%esp)
 80496da:	00 
 80496db:	c7 04 24 00 5c 38 55 	movl   $0x55385c00,(%esp)
 80496e2:	e8 4d f0 ff ff       	call   8048734 <mmap@plt>
 80496e7:	89 45 f4             	mov    %eax,-0xc(%ebp)
 80496ea:	83 7d f4 ff          	cmpl   $0xffffffff,-0xc(%ebp)
 80496ee:	75 31                	jne    8049721 <launcher+0x84>
 80496f0:	a1 60 ae 04 08       	mov    0x804ae60,%eax
 80496f5:	89 44 24 0c          	mov    %eax,0xc(%esp)
 80496f9:	c7 44 24 08 23 00 00 	movl   $0x23,0x8(%esp)
 8049700:	00 
 8049701:	c7 44 24 04 01 00 00 	movl   $0x1,0x4(%esp)
 8049708:	00 
 8049709:	c7 04 24 44 9a 04 08 	movl   $0x8049a44,(%esp)
 8049710:	e8 5f f1 ff ff       	call   8048874 <fwrite@plt>
 8049715:	c7 04 24 01 00 00 00 	movl   $0x1,(%esp)
 804971c:	e8 d3 f1 ff ff       	call   80488f4 <exit@plt>
 8049721:	8b 45 f4             	mov    -0xc(%ebp),%eax
 8049724:	05 f8 ff 0f 00       	add    $0xffff8,%eax
 8049729:	a3 28 2d 05 08       	mov    %eax,0x8052d28
 804972e:	8b 15 28 2d 05 08    	mov    0x8052d28,%edx
 8049734:	89 e0                	mov    %esp,%eax
 8049736:	89 d4                	mov    %edx,%esp
 8049738:	89 c2                	mov    %eax,%edx
 804973a:	89 15 74 ae 04 08    	mov    %edx,0x804ae74
 8049740:	e8 df f8 ff ff       	call   8049024 <server>
 8049745:	a1 74 ae 04 08       	mov    0x804ae74,%eax
 804974a:	89 c4                	mov    %eax,%esp
 804974c:	c7 44 24 04 00 00 10 	movl   $0x100000,0x4(%esp)
 8049753:	00 
 8049754:	8b 45 f4             	mov    -0xc(%ebp),%eax
 8049757:	89 04 24             	mov    %eax,(%esp)
 804975a:	e8 85 f1 ff ff       	call   80488e4 <munmap@plt>
 804975f:	c9                   	leave  
 8049760:	c3                   	ret    

08049761 <main>:
 8049761:	55                   	push   %ebp
 8049762:	89 e5                	mov    %esp,%ebp
 8049764:	53                   	push   %ebx
 8049765:	83 e4 f0             	and    $0xfffffff0,%esp
 8049768:	83 ec 30             	sub    $0x30,%esp
 804976b:	c7 44 24 28 00 00 00 	movl   $0x0,0x28(%esp)
 8049772:	00 
 8049773:	c7 44 24 24 01 00 00 	movl   $0x1,0x24(%esp)
 804977a:	00 
 804977b:	c7 44 24 20 01 00 00 	movl   $0x1,0x20(%esp)
 8049782:	00 
 8049783:	a1 2c ae 04 08       	mov    0x804ae2c,%eax
 8049788:	89 04 24             	mov    %eax,(%esp)
 804978b:	e8 c4 f0 ff ff       	call   8048854 <srandom@plt>
 8049790:	e8 af ef ff ff       	call   8048744 <random@plt>
 8049795:	25 f8 0f 00 00       	and    $0xff8,%eax
 804979a:	89 44 24 28          	mov    %eax,0x28(%esp)
 804979e:	8b 44 24 20          	mov    0x20(%esp),%eax
 80497a2:	c7 44 24 04 04 00 00 	movl   $0x4,0x4(%esp)
 80497a9:	00 
 80497aa:	89 04 24             	mov    %eax,(%esp)
 80497ad:	e8 b2 ef ff ff       	call   8048764 <calloc@plt>
 80497b2:	89 44 24 1c          	mov    %eax,0x1c(%esp)
 80497b6:	c7 44 24 2c 00 00 00 	movl   $0x0,0x2c(%esp)
 80497bd:	00 
 80497be:	eb 21                	jmp    80497e1 <main+0x80>
 80497c0:	8b 44 24 2c          	mov    0x2c(%esp),%eax
 80497c4:	8d 14 85 00 00 00 00 	lea    0x0(,%eax,4),%edx
 80497cb:	8b 44 24 1c          	mov    0x1c(%esp),%eax
 80497cf:	8d 1c 02             	lea    (%edx,%eax,1),%ebx
 80497d2:	e8 6d ef ff ff       	call   8048744 <random@plt>
 80497d7:	83 e0 38             	and    $0x38,%eax
 80497da:	89 03                	mov    %eax,(%ebx)
 80497dc:	83 44 24 2c 01       	addl   $0x1,0x2c(%esp)
 80497e1:	8b 44 24 20          	mov    0x20(%esp),%eax
 80497e5:	83 e8 02             	sub    $0x2,%eax
 80497e8:	3b 44 24 2c          	cmp    0x2c(%esp),%eax
 80497ec:	7f d2                	jg     80497c0 <main+0x5f>
 80497ee:	83 7c 24 20 01       	cmpl   $0x1,0x20(%esp)
 80497f3:	7e 1c                	jle    8049811 <main+0xb0>
 80497f5:	8b 44 24 20          	mov    0x20(%esp),%eax
 80497f9:	05 fe ff ff 3f       	add    $0x3ffffffe,%eax
 80497fe:	8d 14 85 00 00 00 00 	lea    0x0(,%eax,4),%edx
 8049805:	8b 44 24 1c          	mov    0x1c(%esp),%eax
 8049809:	01 d0                	add    %edx,%eax
 804980b:	c7 00 38 00 00 00    	movl   $0x38,(%eax)
 8049811:	8b 44 24 20          	mov    0x20(%esp),%eax
 8049815:	05 ff ff ff 3f       	add    $0x3fffffff,%eax
 804981a:	8d 14 85 00 00 00 00 	lea    0x0(,%eax,4),%edx
 8049821:	8b 44 24 1c          	mov    0x1c(%esp),%eax
 8049825:	01 d0                	add    %edx,%eax
 8049827:	c7 00 00 00 00 00    	movl   $0x0,(%eax)
 804982d:	c7 44 24 2c 00 00 00 	movl   $0x0,0x2c(%esp)
 8049834:	00 
 8049835:	eb 2e                	jmp    8049865 <main+0x104>
 8049837:	8b 44 24 2c          	mov    0x2c(%esp),%eax
 804983b:	8d 14 85 00 00 00 00 	lea    0x0(,%eax,4),%edx
 8049842:	8b 44 24 1c          	mov    0x1c(%esp),%eax
 8049846:	01 d0                	add    %edx,%eax
 8049848:	8b 10                	mov    (%eax),%edx
 804984a:	8b 44 24 28          	mov    0x28(%esp),%eax
 804984e:	01 d0                	add    %edx,%eax
 8049850:	89 44 24 04          	mov    %eax,0x4(%esp)
 8049854:	8b 44 24 24          	mov    0x24(%esp),%eax
 8049858:	89 04 24             	mov    %eax,(%esp)
 804985b:	e8 3d fe ff ff       	call   804969d <launcher>
 8049860:	83 44 24 2c 01       	addl   $0x1,0x2c(%esp)
 8049865:	8b 44 24 2c          	mov    0x2c(%esp),%eax
 8049869:	3b 44 24 20          	cmp    0x20(%esp),%eax
 804986d:	7c c8                	jl     8049837 <main+0xd6>
 804986f:	b8 00 00 00 00       	mov    $0x0,%eax
 8049874:	8b 5d fc             	mov    -0x4(%ebp),%ebx
 8049877:	c9                   	leave  
 8049878:	c3                   	ret    
 8049879:	90                   	nop
 804987a:	90                   	nop
 804987b:	90                   	nop
 804987c:	90                   	nop
 804987d:	90                   	nop
 804987e:	90                   	nop
 804987f:	90                   	nop

08049880 <__libc_csu_fini>:
 8049880:	55                   	push   %ebp
 8049881:	89 e5                	mov    %esp,%ebp
 8049883:	5d                   	pop    %ebp
 8049884:	c3                   	ret    
 8049885:	66 66 2e 0f 1f 84 00 	data32 nopw %cs:0x0(%eax,%eax,1)
 804988c:	00 00 00 00 

08049890 <__libc_csu_init>:
 8049890:	55                   	push   %ebp
 8049891:	89 e5                	mov    %esp,%ebp
 8049893:	57                   	push   %edi
 8049894:	56                   	push   %esi
 8049895:	53                   	push   %ebx
 8049896:	e8 4f 00 00 00       	call   80498ea <__i686.get_pc_thunk.bx>
 804989b:	81 c3 01 15 00 00    	add    $0x1501,%ebx
 80498a1:	83 ec 1c             	sub    $0x1c,%esp
 80498a4:	e8 2b ee ff ff       	call   80486d4 <_init>
 80498a9:	8d bb 20 ff ff ff    	lea    -0xe0(%ebx),%edi
 80498af:	8d 83 20 ff ff ff    	lea    -0xe0(%ebx),%eax
 80498b5:	29 c7                	sub    %eax,%edi
 80498b7:	c1 ff 02             	sar    $0x2,%edi
 80498ba:	85 ff                	test   %edi,%edi
 80498bc:	74 24                	je     80498e2 <__libc_csu_init+0x52>
 80498be:	31 f6                	xor    %esi,%esi
 80498c0:	8b 45 10             	mov    0x10(%ebp),%eax
 80498c3:	89 44 24 08          	mov    %eax,0x8(%esp)
 80498c7:	8b 45 0c             	mov    0xc(%ebp),%eax
 80498ca:	89 44 24 04          	mov    %eax,0x4(%esp)
 80498ce:	8b 45 08             	mov    0x8(%ebp),%eax
 80498d1:	89 04 24             	mov    %eax,(%esp)
 80498d4:	ff 94 b3 20 ff ff ff 	call   *-0xe0(%ebx,%esi,4)
 80498db:	83 c6 01             	add    $0x1,%esi
 80498de:	39 fe                	cmp    %edi,%esi
 80498e0:	72 de                	jb     80498c0 <__libc_csu_init+0x30>
 80498e2:	83 c4 1c             	add    $0x1c,%esp
 80498e5:	5b                   	pop    %ebx
 80498e6:	5e                   	pop    %esi
 80498e7:	5f                   	pop    %edi
 80498e8:	5d                   	pop    %ebp
 80498e9:	c3                   	ret    

080498ea <__i686.get_pc_thunk.bx>:
 80498ea:	8b 1c 24             	mov    (%esp),%ebx
 80498ed:	c3                   	ret    
 80498ee:	90                   	nop
 80498ef:	90                   	nop

080498f0 <__do_global_ctors_aux>:
 80498f0:	55                   	push   %ebp
 80498f1:	89 e5                	mov    %esp,%ebp
 80498f3:	53                   	push   %ebx
 80498f4:	bb bc ac 04 08       	mov    $0x804acbc,%ebx
 80498f9:	83 ec 04             	sub    $0x4,%esp
 80498fc:	a1 bc ac 04 08       	mov    0x804acbc,%eax
 8049901:	83 f8 ff             	cmp    $0xffffffff,%eax
 8049904:	74 0e                	je     8049914 <__do_global_ctors_aux+0x24>
 8049906:	66 90                	xchg   %ax,%ax
 8049908:	83 eb 04             	sub    $0x4,%ebx
 804990b:	ff d0                	call   *%eax
 804990d:	8b 03                	mov    (%ebx),%eax
 804990f:	83 f8 ff             	cmp    $0xffffffff,%eax
 8049912:	75 f4                	jne    8049908 <__do_global_ctors_aux+0x18>
 8049914:	83 c4 04             	add    $0x4,%esp
 8049917:	5b                   	pop    %ebx
 8049918:	5d                   	pop    %ebp
 8049919:	c3                   	ret    
 804991a:	90                   	nop
 804991b:	90                   	nop

Disassembly of section .fini:

0804991c <_fini>:
 804991c:	55                   	push   %ebp
 804991d:	89 e5                	mov    %esp,%ebp
 804991f:	53                   	push   %ebx
 8049920:	83 ec 04             	sub    $0x4,%esp
 8049923:	e8 00 00 00 00       	call   8049928 <_fini+0xc>
 8049928:	5b                   	pop    %ebx
 8049929:	81 c3 74 14 00 00    	add    $0x1474,%ebx
 804992f:	e8 7c f0 ff ff       	call   80489b0 <__do_global_dtors_aux>
 8049934:	59                   	pop    %ecx
 8049935:	5b                   	pop    %ebx
 8049936:	c9                   	leave  
 8049937:	c3                   	ret    
